
kernel.elf:     file format elf32-littlearm


Disassembly of section .text:

00008000 <_start>:
    8000:	e59ff018 	ldr	pc, [pc, #24]	; 8020 <reset_handler>
    8004:	e59ff018 	ldr	pc, [pc, #24]	; 8024 <undefined_handler>
    8008:	e59ff018 	ldr	pc, [pc, #24]	; 8028 <swi_handler>
    800c:	e59ff018 	ldr	pc, [pc, #24]	; 802c <prefetch_handler>
    8010:	e59ff018 	ldr	pc, [pc, #24]	; 8030 <data_handler>
    8014:	e59ff018 	ldr	pc, [pc, #24]	; 8034 <unused_handler>
    8018:	e59ff018 	ldr	pc, [pc, #24]	; 8038 <irq_handler>
    801c:	e59ff018 	ldr	pc, [pc, #24]	; 803c <fiq_handler>

00008020 <reset_handler>:
    8020:	00008040 	andeq	r8, r0, r0, asr #32

00008024 <undefined_handler>:
    8024:	00008084 	andeq	r8, r0, r4, lsl #1

00008028 <swi_handler>:
    8028:	00008088 	andeq	r8, r0, r8, lsl #1

0000802c <prefetch_handler>:
    802c:	0000808c 	andeq	r8, r0, ip, lsl #1

00008030 <data_handler>:
    8030:	00008090 	muleq	r0, r0, r0

00008034 <unused_handler>:
    8034:	00008094 	muleq	r0, r4, r0

00008038 <irq_handler>:
    8038:	000080cc 	andeq	r8, r0, ip, asr #1

0000803c <fiq_handler>:
    803c:	00008098 	muleq	r0, r8, r0

00008040 <reset>:
    8040:	e3a00902 	mov	r0, #32768	; 0x8000
    8044:	e3a01000 	mov	r1, #0
    8048:	e8b003fc 	ldm	r0!, {r2, r3, r4, r5, r6, r7, r8, r9}
    804c:	e8a103fc 	stmia	r1!, {r2, r3, r4, r5, r6, r7, r8, r9}
    8050:	e8b003fc 	ldm	r0!, {r2, r3, r4, r5, r6, r7, r8, r9}
    8054:	e8a103fc 	stmia	r1!, {r2, r3, r4, r5, r6, r7, r8, r9}
    8058:	e3a000d1 	mov	r0, #209	; 0xd1
    805c:	e121f000 	msr	CPSR_c, r0
    8060:	e3a0d90e 	mov	sp, #229376	; 0x38000
    8064:	e3a000d2 	mov	r0, #210	; 0xd2
    8068:	e121f000 	msr	CPSR_c, r0
    806c:	e3a0d701 	mov	sp, #262144	; 0x40000
    8070:	e3a000d3 	mov	r0, #211	; 0xd3
    8074:	e121f000 	msr	CPSR_c, r0
    8078:	e3a0d912 	mov	sp, #294912	; 0x48000
    807c:	eb000025 	bl	8118 <kmain>

00008080 <hang>:
    8080:	eafffffe 	b	8080 <hang>

00008084 <undefined>:
    8084:	eafffffe 	b	8084 <undefined>

00008088 <swi>:
    8088:	eafffffe 	b	8088 <swi>

0000808c <prefetch>:
    808c:	eafffffe 	b	808c <prefetch>

00008090 <data>:
    8090:	eafffffe 	b	8090 <data>

00008094 <unused>:
    8094:	eafffffe 	b	8094 <unused>

00008098 <fiq>:
    8098:	eafffffe 	b	8098 <fiq>

0000809c <PUT32>:
    809c:	e5801000 	str	r1, [r0]
    80a0:	e12fff1e 	bx	lr

000080a4 <PUT16>:
    80a4:	e1c010b0 	strh	r1, [r0]
    80a8:	e12fff1e 	bx	lr

000080ac <PUT8>:
    80ac:	e5c01000 	strb	r1, [r0]
    80b0:	e12fff1e 	bx	lr

000080b4 <GET32>:
    80b4:	e5900000 	ldr	r0, [r0]
    80b8:	e12fff1e 	bx	lr

000080bc <GETPC>:
    80bc:	e1a0000e 	mov	r0, lr
    80c0:	e12fff1e 	bx	lr

000080c4 <BRANCHTO>:
    80c4:	e12fff10 	bx	r0

000080c8 <dummy>:
    80c8:	e12fff1e 	bx	lr

000080cc <irq>:
    80cc:	eafffffe 	b	80cc <irq>

000080d0 <funcA>:
    80d0:	e52de004 	push	{lr}		; (str lr, [sp, #-4]!)
    80d4:	e24dd00c 	sub	sp, sp, #12
    80d8:	e3a03000 	mov	r3, #0
    80dc:	e58d3004 	str	r3, [sp, #4]
    80e0:	e59d3004 	ldr	r3, [sp, #4]
    80e4:	e2833001 	add	r3, r3, #1
    80e8:	e58d3004 	str	r3, [sp, #4]
    80ec:	eb000131 	bl	85b8 <ctx_switch>
    80f0:	eafffffa 	b	80e0 <funcA+0x10>

000080f4 <funcB>:
    80f4:	e52de004 	push	{lr}		; (str lr, [sp, #-4]!)
    80f8:	e24dd00c 	sub	sp, sp, #12
    80fc:	e3a03001 	mov	r3, #1
    8100:	e58d3004 	str	r3, [sp, #4]
    8104:	e59d3004 	ldr	r3, [sp, #4]
    8108:	e2833002 	add	r3, r3, #2
    810c:	e58d3004 	str	r3, [sp, #4]
    8110:	eb000128 	bl	85b8 <ctx_switch>
    8114:	eafffffa 	b	8104 <funcB+0x10>

00008118 <kmain>:
    8118:	e92d4008 	push	{r3, lr}
    811c:	eb00007b 	bl	8310 <init_hw>
    8120:	e59f002c 	ldr	r0, [pc, #44]	; 8154 <kmain+0x3c>
    8124:	e3a01000 	mov	r1, #0
    8128:	e3a02b01 	mov	r2, #1024	; 0x400
    812c:	eb0000f3 	bl	8500 <create_process>
    8130:	e59f0020 	ldr	r0, [pc, #32]	; 8158 <kmain+0x40>
    8134:	e3a01000 	mov	r1, #0
    8138:	e3a02b01 	mov	r2, #1024	; 0x400
    813c:	eb0000ef 	bl	8500 <create_process>
    8140:	eb00011b 	bl	85b4 <start_sched>
    8144:	eb00011b 	bl	85b8 <ctx_switch>
    8148:	e3a03000 	mov	r3, #0
    814c:	e1a00003 	mov	r0, r3
    8150:	e8bd8008 	pop	{r3, pc}
    8154:	000080f4 	strdeq	r8, [r0], -r4
    8158:	000080d0 	ldrdeq	r8, [r0], -r0

0000815c <phyAlloc_alloc>:
    815c:	e92d0030 	push	{r4, r5}
    8160:	e24dd008 	sub	sp, sp, #8
    8164:	e58d0004 	str	r0, [sp, #4]
    8168:	e59f3094 	ldr	r3, [pc, #148]	; 8204 <phyAlloc_alloc+0xa8>
    816c:	e5934000 	ldr	r4, [r3]
    8170:	e59f508c 	ldr	r5, [pc, #140]	; 8204 <phyAlloc_alloc+0xa8>
    8174:	ea000001 	b	8180 <phyAlloc_alloc+0x24>
    8178:	e1a05004 	mov	r5, r4
    817c:	e5944000 	ldr	r4, [r4]
    8180:	e3540000 	cmp	r4, #0
    8184:	0a000003 	beq	8198 <phyAlloc_alloc+0x3c>
    8188:	e5942004 	ldr	r2, [r4, #4]
    818c:	e59d3004 	ldr	r3, [sp, #4]
    8190:	e1520003 	cmp	r2, r3
    8194:	3afffff7 	bcc	8178 <phyAlloc_alloc+0x1c>
    8198:	e3540000 	cmp	r4, #0
    819c:	1a000011 	bne	81e8 <phyAlloc_alloc+0x8c>
    81a0:	e59f3060 	ldr	r3, [pc, #96]	; 8208 <phyAlloc_alloc+0xac>
    81a4:	e5934000 	ldr	r4, [r3]
    81a8:	e59f3058 	ldr	r3, [pc, #88]	; 8208 <phyAlloc_alloc+0xac>
    81ac:	e5932000 	ldr	r2, [r3]
    81b0:	e59d3004 	ldr	r3, [sp, #4]
    81b4:	e2833003 	add	r3, r3, #3
    81b8:	e3c33003 	bic	r3, r3, #3
    81bc:	e0822003 	add	r2, r2, r3
    81c0:	e59f3040 	ldr	r3, [pc, #64]	; 8208 <phyAlloc_alloc+0xac>
    81c4:	e5832000 	str	r2, [r3]
    81c8:	e59f3038 	ldr	r3, [pc, #56]	; 8208 <phyAlloc_alloc+0xac>
    81cc:	e5932000 	ldr	r2, [r3]
    81d0:	e59f3034 	ldr	r3, [pc, #52]	; 820c <phyAlloc_alloc+0xb0>
    81d4:	e5933000 	ldr	r3, [r3]
    81d8:	e1520003 	cmp	r2, r3
    81dc:	9a000003 	bls	81f0 <phyAlloc_alloc+0x94>
    81e0:	e3a03000 	mov	r3, #0
    81e4:	ea000002 	b	81f4 <phyAlloc_alloc+0x98>
    81e8:	e5943000 	ldr	r3, [r4]
    81ec:	e5853000 	str	r3, [r5]
    81f0:	e1a03004 	mov	r3, r4
    81f4:	e1a00003 	mov	r0, r3
    81f8:	e28dd008 	add	sp, sp, #8
    81fc:	e8bd0030 	pop	{r4, r5}
    8200:	e12fff1e 	bx	lr
    8204:	000085bc 			; <UNDEFINED> instruction: 0x000085bc
    8208:	000085c0 	andeq	r8, r0, r0, asr #11
    820c:	000085c4 	andeq	r8, r0, r4, asr #11

00008210 <phyAlloc_free>:
    8210:	e52d4004 	push	{r4}		; (str r4, [sp, #-4]!)
    8214:	e24dd00c 	sub	sp, sp, #12
    8218:	e58d0004 	str	r0, [sp, #4]
    821c:	e58d1000 	str	r1, [sp]
    8220:	e59d4004 	ldr	r4, [sp, #4]
    8224:	e59d3000 	ldr	r3, [sp]
    8228:	e2833003 	add	r3, r3, #3
    822c:	e3c33003 	bic	r3, r3, #3
    8230:	e5843004 	str	r3, [r4, #4]
    8234:	e59f3018 	ldr	r3, [pc, #24]	; 8254 <phyAlloc_free+0x44>
    8238:	e5933000 	ldr	r3, [r3]
    823c:	e5843000 	str	r3, [r4]
    8240:	e59f300c 	ldr	r3, [pc, #12]	; 8254 <phyAlloc_free+0x44>
    8244:	e5834000 	str	r4, [r3]
    8248:	e28dd00c 	add	sp, sp, #12
    824c:	e8bd0010 	pop	{r4}
    8250:	e12fff1e 	bx	lr
    8254:	000085bc 			; <UNDEFINED> instruction: 0x000085bc

00008258 <phyAlloc_init>:
    8258:	e24dd008 	sub	sp, sp, #8
    825c:	e58d0004 	str	r0, [sp, #4]
    8260:	e58d1000 	str	r1, [sp]
    8264:	e59f3020 	ldr	r3, [pc, #32]	; 828c <phyAlloc_init+0x34>
    8268:	e59d2004 	ldr	r2, [sp, #4]
    826c:	e5832000 	str	r2, [r3]
    8270:	e59d2004 	ldr	r2, [sp, #4]
    8274:	e59d3000 	ldr	r3, [sp]
    8278:	e0822003 	add	r2, r2, r3
    827c:	e59f300c 	ldr	r3, [pc, #12]	; 8290 <phyAlloc_init+0x38>
    8280:	e5832000 	str	r2, [r3]
    8284:	e28dd008 	add	sp, sp, #8
    8288:	e12fff1e 	bx	lr
    828c:	000085c0 	andeq	r8, r0, r0, asr #11
    8290:	000085c4 	andeq	r8, r0, r4, asr #11

00008294 <set_tick_and_enable_timer>:
    8294:	e52de004 	push	{lr}		; (str lr, [sp, #-4]!)
    8298:	e24dd00c 	sub	sp, sp, #12
    829c:	e59f0030 	ldr	r0, [pc, #48]	; 82d4 <set_tick_and_enable_timer+0x40>
    82a0:	ebffff83 	bl	80b4 <GET32>
    82a4:	e58d0004 	str	r0, [sp, #4]
    82a8:	e59d3004 	ldr	r3, [sp, #4]
    82ac:	e2833702 	add	r3, r3, #524288	; 0x80000
    82b0:	e58d3004 	str	r3, [sp, #4]
    82b4:	e59f001c 	ldr	r0, [pc, #28]	; 82d8 <set_tick_and_enable_timer+0x44>
    82b8:	e59d1004 	ldr	r1, [sp, #4]
    82bc:	ebffff76 	bl	809c <PUT32>
    82c0:	e59f0014 	ldr	r0, [pc, #20]	; 82dc <set_tick_and_enable_timer+0x48>
    82c4:	e3a01002 	mov	r1, #2
    82c8:	ebffff73 	bl	809c <PUT32>
    82cc:	e28dd00c 	add	sp, sp, #12
    82d0:	e8bd8000 	pop	{pc}
    82d4:	20003004 	andcs	r3, r0, r4
    82d8:	20003010 	andcs	r3, r0, r0, lsl r0
    82dc:	20003000 	andcs	r3, r0, r0

000082e0 <led_off>:
    82e0:	e92d4008 	push	{r3, lr}
    82e4:	e59f0008 	ldr	r0, [pc, #8]	; 82f4 <led_off+0x14>
    82e8:	e3a01801 	mov	r1, #65536	; 0x10000
    82ec:	ebffff6a 	bl	809c <PUT32>
    82f0:	e8bd8008 	pop	{r3, pc}
    82f4:	2020001c 	eorcs	r0, r0, ip, lsl r0

000082f8 <led_on>:
    82f8:	e92d4008 	push	{r3, lr}
    82fc:	e59f0008 	ldr	r0, [pc, #8]	; 830c <led_on+0x14>
    8300:	e3a01801 	mov	r1, #65536	; 0x10000
    8304:	ebffff64 	bl	809c <PUT32>
    8308:	e8bd8008 	pop	{r3, pc}
    830c:	20200028 	eorcs	r0, r0, r8, lsr #32

00008310 <init_hw>:
    8310:	e52de004 	push	{lr}		; (str lr, [sp, #-4]!)
    8314:	e24dd00c 	sub	sp, sp, #12
    8318:	e59f0098 	ldr	r0, [pc, #152]	; 83b8 <init_hw+0xa8>
    831c:	ebffff64 	bl	80b4 <GET32>
    8320:	e58d0004 	str	r0, [sp, #4]
    8324:	e59d3004 	ldr	r3, [sp, #4]
    8328:	e3c33707 	bic	r3, r3, #1835008	; 0x1c0000
    832c:	e58d3004 	str	r3, [sp, #4]
    8330:	e59d3004 	ldr	r3, [sp, #4]
    8334:	e3833701 	orr	r3, r3, #262144	; 0x40000
    8338:	e58d3004 	str	r3, [sp, #4]
    833c:	e59f0074 	ldr	r0, [pc, #116]	; 83b8 <init_hw+0xa8>
    8340:	e59d1004 	ldr	r1, [sp, #4]
    8344:	ebffff54 	bl	809c <PUT32>
    8348:	e59f006c 	ldr	r0, [pc, #108]	; 83bc <init_hw+0xac>
    834c:	e3a01801 	mov	r1, #65536	; 0x10000
    8350:	ebffff51 	bl	809c <PUT32>
    8354:	e59f0064 	ldr	r0, [pc, #100]	; 83c0 <init_hw+0xb0>
    8358:	ebffff55 	bl	80b4 <GET32>
    835c:	e58d0000 	str	r0, [sp]
    8360:	e59d3000 	ldr	r3, [sp]
    8364:	e2833702 	add	r3, r3, #524288	; 0x80000
    8368:	e58d3000 	str	r3, [sp]
    836c:	e59f0050 	ldr	r0, [pc, #80]	; 83c4 <init_hw+0xb4>
    8370:	e59d1000 	ldr	r1, [sp]
    8374:	ebffff48 	bl	809c <PUT32>
    8378:	e59f0048 	ldr	r0, [pc, #72]	; 83c8 <init_hw+0xb8>
    837c:	e3a01002 	mov	r1, #2
    8380:	ebffff45 	bl	809c <PUT32>
    8384:	e59f0040 	ldr	r0, [pc, #64]	; 83cc <init_hw+0xbc>
    8388:	e3a01002 	mov	r1, #2
    838c:	ebffff42 	bl	809c <PUT32>
    8390:	e92d0001 	push	{r0}
    8394:	e10f0000 	mrs	r0, CPSR
    8398:	e3800080 	orr	r0, r0, #128	; 0x80
    839c:	e121f000 	msr	CPSR_c, r0
    83a0:	e8bd0001 	pop	{r0}
    83a4:	e3a00805 	mov	r0, #327680	; 0x50000
    83a8:	e3a01a32 	mov	r1, #204800	; 0x32000
    83ac:	ebffffa9 	bl	8258 <phyAlloc_init>
    83b0:	e28dd00c 	add	sp, sp, #12
    83b4:	e8bd8000 	pop	{pc}
    83b8:	20200004 	eorcs	r0, r0, r4
    83bc:	2020001c 	eorcs	r0, r0, ip, lsl r0
    83c0:	20003004 	andcs	r3, r0, r4
    83c4:	20003010 	andcs	r3, r0, r0, lsl r0
    83c8:	20003000 	andcs	r3, r0, r0
    83cc:	2000b210 	andcs	fp, r0, r0, lsl r2

000083d0 <init_ctx>:
    83d0:	e52de004 	push	{lr}		; (str lr, [sp, #-4]!)
    83d4:	e24dd014 	sub	sp, sp, #20
    83d8:	e58d000c 	str	r0, [sp, #12]
    83dc:	e58d1008 	str	r1, [sp, #8]
    83e0:	e58d2004 	str	r2, [sp, #4]
    83e4:	e59d2008 	ldr	r2, [sp, #8]
    83e8:	e59d300c 	ldr	r3, [sp, #12]
    83ec:	e5832004 	str	r2, [r3, #4]
    83f0:	e59d0004 	ldr	r0, [sp, #4]
    83f4:	ebffff58 	bl	815c <phyAlloc_alloc>
    83f8:	e1a03000 	mov	r3, r0
    83fc:	e1a02003 	mov	r2, r3
    8400:	e59d3004 	ldr	r3, [sp, #4]
    8404:	e0822003 	add	r2, r2, r3
    8408:	e59d300c 	ldr	r3, [sp, #12]
    840c:	e5832000 	str	r2, [r3]
    8410:	e28dd014 	add	sp, sp, #20
    8414:	e8bd8000 	pop	{pc}

00008418 <switch_to>:
    8418:	e1a02000 	mov	r2, r0
    841c:	e92d1fff 	push	{r0, r1, r2, r3, r4, r5, r6, r7, r8, r9, sl, fp, ip}
    8420:	e59f3048 	ldr	r3, [pc, #72]	; 8470 <switch_to+0x58>
    8424:	e5933000 	ldr	r3, [r3]
    8428:	e1a0100d 	mov	r1, sp
    842c:	e5831000 	str	r1, [r3]
    8430:	e59f3038 	ldr	r3, [pc, #56]	; 8470 <switch_to+0x58>
    8434:	e5933000 	ldr	r3, [r3]
    8438:	e1a0100e 	mov	r1, lr
    843c:	e5831004 	str	r1, [r3, #4]
    8440:	e59f3028 	ldr	r3, [pc, #40]	; 8470 <switch_to+0x58>
    8444:	e5832000 	str	r2, [r3]
    8448:	e59f3020 	ldr	r3, [pc, #32]	; 8470 <switch_to+0x58>
    844c:	e5933000 	ldr	r3, [r3]
    8450:	e5933000 	ldr	r3, [r3]
    8454:	e1a0d003 	mov	sp, r3
    8458:	e59f3010 	ldr	r3, [pc, #16]	; 8470 <switch_to+0x58>
    845c:	e5933000 	ldr	r3, [r3]
    8460:	e5933004 	ldr	r3, [r3, #4]
    8464:	e1a0e003 	mov	lr, r3
    8468:	e8bd1fff 	pop	{r0, r1, r2, r3, r4, r5, r6, r7, r8, r9, sl, fp, ip}
    846c:	e12fff1e 	bx	lr
    8470:	000085d8 	ldrdeq	r8, [r0], -r8	; <UNPREDICTABLE>

00008474 <init_pcb>:
    8474:	e52de004 	push	{lr}		; (str lr, [sp, #-4]!)
    8478:	e24dd014 	sub	sp, sp, #20
    847c:	e58d000c 	str	r0, [sp, #12]
    8480:	e58d1008 	str	r1, [sp, #8]
    8484:	e58d2004 	str	r2, [sp, #4]
    8488:	e58d3000 	str	r3, [sp]
    848c:	e59f3068 	ldr	r3, [pc, #104]	; 84fc <init_pcb+0x88>
    8490:	e5932000 	ldr	r2, [r3]
    8494:	e59d300c 	ldr	r3, [sp, #12]
    8498:	e5832000 	str	r2, [r3]
    849c:	e59f3058 	ldr	r3, [pc, #88]	; 84fc <init_pcb+0x88>
    84a0:	e5933000 	ldr	r3, [r3]
    84a4:	e2832001 	add	r2, r3, #1
    84a8:	e59f304c 	ldr	r3, [pc, #76]	; 84fc <init_pcb+0x88>
    84ac:	e5832000 	str	r2, [r3]
    84b0:	e59d300c 	ldr	r3, [sp, #12]
    84b4:	e3a02000 	mov	r2, #0
    84b8:	e5c32004 	strb	r2, [r3, #4]
    84bc:	e59d2008 	ldr	r2, [sp, #8]
    84c0:	e59d300c 	ldr	r3, [sp, #12]
    84c4:	e583200c 	str	r2, [r3, #12]
    84c8:	e59d0000 	ldr	r0, [sp]
    84cc:	ebffff22 	bl	815c <phyAlloc_alloc>
    84d0:	e1a03000 	mov	r3, r0
    84d4:	e1a02003 	mov	r2, r3
    84d8:	e59d3000 	ldr	r3, [sp]
    84dc:	e0822003 	add	r2, r2, r3
    84e0:	e59d300c 	ldr	r3, [sp, #12]
    84e4:	e5832008 	str	r2, [r3, #8]
    84e8:	e59d300c 	ldr	r3, [sp, #12]
    84ec:	e59d2004 	ldr	r2, [sp, #4]
    84f0:	e5832010 	str	r2, [r3, #16]
    84f4:	e28dd014 	add	sp, sp, #20
    84f8:	e8bd8000 	pop	{pc}
    84fc:	000085c8 	andeq	r8, r0, r8, asr #11

00008500 <create_process>:
    8500:	e52de004 	push	{lr}		; (str lr, [sp, #-4]!)
    8504:	e24dd01c 	sub	sp, sp, #28
    8508:	e58d000c 	str	r0, [sp, #12]
    850c:	e58d1008 	str	r1, [sp, #8]
    8510:	e58d2004 	str	r2, [sp, #4]
    8514:	e3a00018 	mov	r0, #24
    8518:	ebffff0f 	bl	815c <phyAlloc_alloc>
    851c:	e1a03000 	mov	r3, r0
    8520:	e58d3014 	str	r3, [sp, #20]
    8524:	e59f304c 	ldr	r3, [pc, #76]	; 8578 <create_process+0x78>
    8528:	e5933000 	ldr	r3, [r3]
    852c:	e59d2014 	ldr	r2, [sp, #20]
    8530:	e5832014 	str	r2, [r3, #20]
    8534:	e59f3040 	ldr	r3, [pc, #64]	; 857c <create_process+0x7c>
    8538:	e5932000 	ldr	r2, [r3]
    853c:	e59d3014 	ldr	r3, [sp, #20]
    8540:	e5832014 	str	r2, [r3, #20]
    8544:	e59f302c 	ldr	r3, [pc, #44]	; 8578 <create_process+0x78>
    8548:	e59d2014 	ldr	r2, [sp, #20]
    854c:	e5832000 	str	r2, [r3]
    8550:	e59d0014 	ldr	r0, [sp, #20]
    8554:	e59d100c 	ldr	r1, [sp, #12]
    8558:	e59d2008 	ldr	r2, [sp, #8]
    855c:	e59d3004 	ldr	r3, [sp, #4]
    8560:	ebffffc3 	bl	8474 <init_pcb>
    8564:	e59d3014 	ldr	r3, [sp, #20]
    8568:	e5933000 	ldr	r3, [r3]
    856c:	e1a00003 	mov	r0, r3
    8570:	e28dd01c 	add	sp, sp, #28
    8574:	e8bd8000 	pop	{pc}
    8578:	000085d0 	ldrdeq	r8, [r0], -r0
    857c:	000085cc 	andeq	r8, r0, ip, asr #11

00008580 <start_current_process>:
    8580:	e92d1fff 	push	{r0, r1, r2, r3, r4, r5, r6, r7, r8, r9, sl, fp, ip}
    8584:	e59f3024 	ldr	r3, [pc, #36]	; 85b0 <start_current_process+0x30>
    8588:	e5933000 	ldr	r3, [r3]
    858c:	e5933008 	ldr	r3, [r3, #8]
    8590:	e1a0d003 	mov	sp, r3
    8594:	e59f3014 	ldr	r3, [pc, #20]	; 85b0 <start_current_process+0x30>
    8598:	e5933000 	ldr	r3, [r3]
    859c:	e593300c 	ldr	r3, [r3, #12]
    85a0:	e1a0e003 	mov	lr, r3
    85a4:	e8bd1fff 	pop	{r0, r1, r2, r3, r4, r5, r6, r7, r8, r9, sl, fp, ip}
    85a8:	e12fff1e 	bx	lr
    85ac:	e12fff1e 	bx	lr
    85b0:	000085d4 	ldrdeq	r8, [r0], -r4

000085b4 <start_sched>:
    85b4:	e12fff1e 	bx	lr

000085b8 <ctx_switch>:
    85b8:	e12fff1e 	bx	lr

Disassembly of section .bss:

000085bc <freelist>:
    85bc:	00000000 	andeq	r0, r0, r0

000085c0 <top>:
    85c0:	00000000 	andeq	r0, r0, r0

000085c4 <heap_limit>:
    85c4:	00000000 	andeq	r0, r0, r0

000085c8 <compteur>:
    85c8:	00000000 	andeq	r0, r0, r0

000085cc <first_process>:
    85cc:	00000000 	andeq	r0, r0, r0

000085d0 <last_process>:
    85d0:	00000000 	andeq	r0, r0, r0

000085d4 <current_process>:
    85d4:	00000000 	andeq	r0, r0, r0

000085d8 <current_ctx>:
    85d8:	00000000 	andeq	r0, r0, r0

Disassembly of section .ARM.attributes:

00000000 <.ARM.attributes>:
   0:	00003141 	andeq	r3, r0, r1, asr #2
   4:	61656100 	cmnvs	r5, r0, lsl #2
   8:	01006962 	tsteq	r0, r2, ror #18
   c:	00000027 	andeq	r0, r0, r7, lsr #32
  10:	005a3605 	subseq	r3, sl, r5, lsl #12
  14:	01080706 	tsteq	r8, r6, lsl #14
  18:	020a0109 	andeq	r0, sl, #1073741826	; 0x40000002
  1c:	01140412 	tsteq	r4, r2, lsl r4
  20:	03170115 	tsteq	r7, #1073741829	; 0x40000005
  24:	011a0118 	tsteq	sl, r8, lsl r1
  28:	011c031b 	tsteq	ip, fp, lsl r3
  2c:	012c0122 	teqeq	ip, r2, lsr #2
  30:	Address 0x0000000000000030 is out of bounds.


Disassembly of section .comment:

00000000 <.comment>:
   0:	3a434347 	bcc	10d0d24 <__bss_end+0x10c8748>
   4:	4e472820 	cdpmi	8, 4, cr2, cr7, cr0, {1}
   8:	34202955 	strtcc	r2, [r0], #-2389	; 0x955
   c:	312e372e 	teqcc	lr, lr, lsr #14
	...

Disassembly of section .debug_line:

00000000 <.debug_line>:
   0:	00000061 	andeq	r0, r0, r1, rrx
   4:	00200002 	eoreq	r0, r0, r2
   8:	01020000 	mrseq	r0, (UNDEF: 2)
   c:	000d0efb 	strdeq	r0, [sp], -fp
  10:	01010101 	tsteq	r1, r1, lsl #2
  14:	01000000 	mrseq	r0, (UNDEF: 0)
  18:	00010000 	andeq	r0, r1, r0
  1c:	74636576 	strbtvc	r6, [r3], #-1398	; 0x576
  20:	2e73726f 	cdpcs	2, 7, cr7, cr3, cr15, {3}
  24:	00000073 	andeq	r0, r0, r3, ror r0
  28:	05000000 	streq	r0, [r0, #-0]
  2c:	00800002 	addeq	r0, r0, r2
  30:	2f2f1900 	svccs	0x002f1900
  34:	2f2f2f2f 	svccs	0x002f2f2f
  38:	080b032f 	stmdaeq	fp, {r0, r1, r2, r3, r5, r8, r9}
  3c:	2f2f2f20 	svccs	0x002f2f20
  40:	2f322f2f 	svccs	0x00322f2f
  44:	2f2f322f 	svccs	0x002f322f
  48:	302f2f31 	eorcc	r2, pc, r1, lsr pc	; <UNPREDICTABLE>
  4c:	2f2f2f30 	svccs	0x002f2f30
  50:	322f2f2f 	eorcc	r2, pc, #188	; 0xbc
  54:	322f322f 	eorcc	r3, pc, #-268435454	; 0xf0000002
  58:	322f322f 	eorcc	r3, pc, #-268435454	; 0xf0000002
  5c:	3032322f 	eorscc	r3, r2, pc, lsr #4
  60:	01000202 	tsteq	r0, r2, lsl #4
  64:	00006601 	andeq	r6, r0, r1, lsl #12
  68:	2a000200 	bcs	870 <_start-0x7790>
  6c:	02000000 	andeq	r0, r0, #0
  70:	0d0efb01 	vstreq	d15, [lr, #-4]
  74:	01010100 	mrseq	r0, (UNDEF: 17)
  78:	00000001 	andeq	r0, r0, r1
  7c:	01000001 	tsteq	r0, r1
  80:	72656b00 	rsbvc	r6, r5, #0
  84:	2e6c656e 	cdpcs	5, 6, cr6, cr12, cr14, {3}
  88:	00000063 	andeq	r0, r0, r3, rrx
  8c:	68637300 	stmdavs	r3!, {r8, r9, ip, sp, lr}^
  90:	682e6465 	stmdavs	lr!, {r0, r2, r5, r6, sl, sp, lr}
  94:	00000000 	andeq	r0, r0, r0
  98:	02050000 	andeq	r0, r5, #0
  9c:	000080d0 	ldrdeq	r8, [r0], -r0
  a0:	02004b15 	andeq	r4, r0, #21504	; 0x5400
  a4:	004c0104 	subeq	r0, ip, r4, lsl #2
  a8:	67010402 	strvs	r0, [r1, -r2, lsl #8]
  ac:	01040200 	mrseq	r0, R12_usr
  b0:	004b302f 	subeq	r3, fp, pc, lsr #32
  b4:	4c010402 	cfstrsmi	mvf0, [r1], {2}
  b8:	01040200 	mrseq	r0, R12_usr
  bc:	04020067 	streq	r0, [r2], #-103	; 0x67
  c0:	2f312f01 	svccs	0x00312f01
  c4:	2f83832f 	svccs	0x0083832f
  c8:	08022f30 	stmdaeq	r2, {r4, r5, r8, r9, sl, fp, sp}
  cc:	59010100 	stmdbpl	r1, {r8}
  d0:	02000000 	andeq	r0, r0, #0
  d4:	00002100 	andeq	r2, r0, r0, lsl #2
  d8:	fb010200 	blx	408e2 <__bss_end+0x38306>
  dc:	01000d0e 	tsteq	r0, lr, lsl #26
  e0:	00010101 	andeq	r0, r1, r1, lsl #2
  e4:	00010000 	andeq	r0, r1, r0
  e8:	70000100 	andvc	r0, r0, r0, lsl #2
  ec:	6c417968 	mcrrvs	9, 6, r7, r1, cr8
  f0:	2e636f6c 	cdpcs	15, 6, cr6, cr3, cr12, {3}
  f4:	00000063 	andeq	r0, r0, r3, rrx
  f8:	05000000 	streq	r0, [r0, #-0]
  fc:	00815c02 	addeq	r5, r1, r2, lsl #24
 100:	010c0300 	mrseq	r0, LR_mon
 104:	2f2f4c67 	svccs	0x002f4c67
 108:	0402002f 	streq	r0, [r2], #-47	; 0x2f
 10c:	02002c01 	andeq	r2, r0, #256	; 0x100
 110:	4a060204 	bmi	180928 <__bss_end+0x17834c>
 114:	4b4b8606 	blmi	12e1934 <__bss_end+0x12d9358>
 118:	4c4cbbf4 	mcrrmi	11, 15, fp, ip, cr4
 11c:	3083da2f 	addcc	sp, r3, pc, lsr #20
 120:	864b6783 	strbhi	r6, [fp], -r3, lsl #15
 124:	029f6767 	addseq	r6, pc, #27000832	; 0x19c0000
 128:	01010008 	tsteq	r1, r8
 12c:	0000004b 	andeq	r0, r0, fp, asr #32
 130:	001b0002 	andseq	r0, fp, r2
 134:	01020000 	mrseq	r0, (UNDEF: 2)
 138:	000d0efb 	strdeq	r0, [sp], -fp
 13c:	01010101 	tsteq	r1, r1, lsl #2
 140:	01000000 	mrseq	r0, (UNDEF: 0)
 144:	00010000 	andeq	r0, r1, r0
 148:	632e7768 	teqvs	lr, #27262976	; 0x1a00000
 14c:	00000000 	andeq	r0, r0, r0
 150:	02050000 	andeq	r0, r5, #0
 154:	00008294 	muleq	r0, r4, r2
 158:	4b011c03 	blmi	4716c <__bss_end+0x3eb90>
 15c:	67686767 	strbvs	r6, [r8, -r7, ror #14]!
 160:	2f9e0903 	svccs	0x009e0903
 164:	672f4e67 	strvs	r4, [pc, -r7, ror #28]!
 168:	67674f51 			; <UNDEFINED> instruction: 0x67674f51
 16c:	67696967 	strbvs	r6, [r9, -r7, ror #18]!
 170:	68696a67 	stmdavs	r9!, {r0, r1, r2, r5, r6, r9, fp, sp, lr}^
 174:	100267a0 	andne	r6, r2, r0, lsr #15
 178:	64010100 	strvs	r0, [r1], #-256	; 0x100
 17c:	02000000 	andeq	r0, r0, #0
 180:	00002900 	andeq	r2, r0, r0, lsl #18
 184:	fb010200 	blx	4098e <__bss_end+0x383b2>
 188:	01000d0e 	tsteq	r0, lr, lsl #26
 18c:	00010101 	andeq	r0, r1, r1, lsl #2
 190:	00010000 	andeq	r0, r1, r0
 194:	73000100 	movwvc	r0, #256	; 0x100
 198:	64656863 	strbtvs	r6, [r5], #-2147	; 0x863
 19c:	0000632e 	andeq	r6, r0, lr, lsr #6
 1a0:	63730000 	cmnvs	r3, #0
 1a4:	2e646568 	cdpcs	5, 6, cr6, cr4, cr8, {3}
 1a8:	00000068 	andeq	r0, r0, r8, rrx
 1ac:	05000000 	streq	r0, [r0, #-0]
 1b0:	0083d002 	addeq	sp, r3, r2
 1b4:	67a01400 	strvs	r1, [r0, r0, lsl #8]!
 1b8:	2f324ef4 	svccs	0x00324ef4
 1bc:	834e8583 	movthi	r8, #58755	; 0xe583
 1c0:	154b3183 	strbne	r3, [fp, #-387]	; 0x183
 1c4:	679f83bb 			; <UNDEFINED> instruction: 0x679f83bb
 1c8:	6868f367 	stmdavs	r8!, {r0, r1, r2, r5, r6, r8, r9, ip, sp, lr, pc}^
 1cc:	8383849f 	orrhi	r8, r3, #-1627389952	; 0x9f000000
 1d0:	a14ba068 	cmpge	fp, r8, rrx
 1d4:	83833113 	orrhi	r3, r3, #-1073741820	; 0xc0000004
 1d8:	134c2f2f 	movtne	r2, #53039	; 0xcf2f
 1dc:	02021330 	andeq	r1, r2, #-1073741824	; 0xc0000000
 1e0:	Address 0x00000000000001e0 is out of bounds.


Disassembly of section .debug_info:

00000000 <.debug_info>:
   0:	0000005b 	andeq	r0, r0, fp, asr r0
   4:	00000002 	andeq	r0, r0, r2
   8:	01040000 	mrseq	r0, (UNDEF: 4)
   c:	00000000 	andeq	r0, r0, r0
  10:	00008000 	andeq	r8, r0, r0
  14:	000080d0 	ldrdeq	r8, [r0], -r0
  18:	74636576 	strbtvc	r6, [r3], #-1398	; 0x576
  1c:	2e73726f 	cdpcs	2, 7, cr7, cr3, cr15, {3}
  20:	682f0073 	stmdavs	pc!, {r0, r1, r4, r5, r6}	; <UNPREDICTABLE>
  24:	2f656d6f 	svccs	0x00656d6f
  28:	6e65626d 	cdpvs	2, 6, cr6, cr5, cr13, {3}
  2c:	6b616863 	blvs	185a1c0 <__bss_end+0x1851be4>
  30:	542f6f72 	strtpl	r6, [pc], #-3954	; 38 <_start-0x7fc8>
  34:	c36ca9c3 	cmngt	ip, #3194880	; 0x30c000
  38:	616863a9 	cmnvs	r8, r9, lsr #7
  3c:	6d656772 	stclvs	7, cr6, [r5, #-456]!	; 0xfffffe38
  40:	73746e65 	cmnvc	r4, #1616	; 0x650
  44:	70736f2f 	rsbsvc	r6, r3, pc, lsr #30
  48:	732d6569 	teqvc	sp, #440401920	; 0x1a400000
  4c:	74726174 	ldrbtvc	r6, [r2], #-372	; 0x174
  50:	554e4700 	strbpl	r4, [lr, #-1792]	; 0x700
  54:	20534120 	subscs	r4, r3, r0, lsr #2
  58:	32322e32 	eorscc	r2, r2, #800	; 0x320
  5c:	1f800100 	svcne	0x00800100
  60:	02000001 	andeq	r0, r0, #1
  64:	00001400 	andeq	r1, r0, r0, lsl #8
  68:	27010400 	strcs	r0, [r1, -r0, lsl #8]
  6c:	01000000 	mrseq	r0, (UNDEF: 0)
  70:	000000a3 	andeq	r0, r0, r3, lsr #1
  74:	0000004f 	andeq	r0, r0, pc, asr #32
  78:	000080d0 	ldrdeq	r8, [r0], -r0
  7c:	0000815c 	andeq	r8, r0, ip, asr r1
  80:	00000065 	andeq	r0, r0, r5, rrx
  84:	42070402 	andmi	r0, r7, #33554432	; 0x2000000
  88:	02000000 	andeq	r0, r0, #0
  8c:	001b0601 	andseq	r0, fp, r1, lsl #12
  90:	01020000 	mrseq	r0, (UNDEF: 2)
  94:	00001908 	andeq	r1, r0, r8, lsl #18
  98:	05020200 	streq	r0, [r2, #-512]	; 0x200
  9c:	000000ac 	andeq	r0, r0, ip, lsr #1
  a0:	90070202 	andls	r0, r7, r2, lsl #4
  a4:	03000000 	movweq	r0, #0
  a8:	6e690504 	cdpvs	5, 6, cr0, cr9, cr4, {0}
  ac:	08020074 	stmdaeq	r2, {r2, r4, r5, r6}
  b0:	00000005 	andeq	r0, r0, r5
  b4:	07080200 	streq	r0, [r8, -r0, lsl #4]
  b8:	00000038 	andeq	r0, r0, r8, lsr r0
  bc:	05050402 	streq	r0, [r5, #-1026]	; 0x402
  c0:	02000000 	andeq	r0, r0, #0
  c4:	00c20704 	sbceq	r0, r2, r4, lsl #14
  c8:	04020000 	streq	r0, [r2], #-0
  cc:	00003d07 	andeq	r3, r0, r7, lsl #26
  d0:	08010200 	stmdaeq	r1, {r9}
  d4:	00000022 	andeq	r0, r0, r2, lsr #32
  d8:	00008a04 	andeq	r8, r0, r4, lsl #20
  dc:	06020800 	streq	r0, [r2], -r0, lsl #16
  e0:	000000a0 	andeq	r0, r0, r0, lsr #1
  e4:	00707305 	rsbseq	r7, r0, r5, lsl #6
  e8:	00250802 	eoreq	r0, r5, r2, lsl #16
  ec:	23020000 	movwcs	r0, #8192	; 0x2000
  f0:	726c0500 	rsbvc	r0, ip, #0
  f4:	25090200 	strcs	r0, [r9, #-512]	; 0x200
  f8:	02000000 	andeq	r0, r0, #0
  fc:	06000423 	streq	r0, [r0], -r3, lsr #8
 100:	00007e01 	andeq	r7, r0, r1, lsl #28
 104:	d0040100 	andle	r0, r4, r0, lsl #2
 108:	f4000080 	vst4.32	{d0-d3}, [r0], r0
 10c:	00000080 	andeq	r0, r0, r0, lsl #1
 110:	01000000 	mrseq	r0, (UNDEF: 0)
 114:	000000c8 	andeq	r0, r0, r8, asr #1
 118:	00003307 	andeq	r3, r0, r7, lsl #6
 11c:	48050100 	stmdami	r5, {r8}
 120:	02000000 	andeq	r0, r0, #0
 124:	06007491 			; <UNDEFINED> instruction: 0x06007491
 128:	00008401 	andeq	r8, r0, r1, lsl #8
 12c:	f40b0100 	vst4.8	{d0,d2,d4,d6}, [fp], r0
 130:	18000080 	stmdane	r0, {r7}
 134:	2c000081 	stccs	0, cr0, [r0], {129}	; 0x81
 138:	01000000 	mrseq	r0, (UNDEF: 0)
 13c:	000000f0 	strdeq	r0, [r0], -r0	; <UNPREDICTABLE>
 140:	00001407 	andeq	r1, r0, r7, lsl #8
 144:	480c0100 	stmdami	ip, {r8}
 148:	02000000 	andeq	r0, r0, #0
 14c:	08007491 	stmdaeq	r0, {r0, r4, r7, sl, ip, sp, lr}
 150:	00000e01 	andeq	r0, r0, r1, lsl #28
 154:	01130100 	tsteq	r3, r0, lsl #2
 158:	00000048 	andeq	r0, r0, r8, asr #32
 15c:	00008118 	andeq	r8, r0, r8, lsl r1
 160:	0000815c 	andeq	r8, r0, ip, asr r1
 164:	00000058 	andeq	r0, r0, r8, asr r0
 168:	00b60901 	adcseq	r0, r6, r1, lsl #18
 16c:	0c020000 	stceq	0, cr0, [r2], {-0}
 170:	0000011c 	andeq	r0, r0, ip, lsl r1
 174:	d8030501 	stmdale	r3, {r0, r8, sl}
 178:	0a000085 	beq	394 <_start-0x7c6c>
 17c:	00007904 	andeq	r7, r0, r4, lsl #18
 180:	015e0000 	cmpeq	lr, r0
 184:	00020000 	andeq	r0, r2, r0
 188:	000000b7 	strheq	r0, [r0], -r7
 18c:	00270104 	eoreq	r0, r7, r4, lsl #2
 190:	cb010000 	blgt	40198 <__bss_end+0x37bbc>
 194:	4f000000 	svcmi	0x00000000
 198:	5c000000 	stcpl	0, cr0, [r0], {-0}
 19c:	94000081 	strls	r0, [r0], #-129	; 0x81
 1a0:	cf000082 	svcgt	0x00000082
 1a4:	02000000 	andeq	r0, r0, #0
 1a8:	08006c66 	stmdaeq	r0, {r1, r2, r5, r6, sl, fp, sp, lr}
 1ac:	004d0301 	subeq	r0, sp, r1, lsl #6
 1b0:	0c030000 	stceq	0, cr0, [r3], {-0}
 1b4:	01000001 	tsteq	r0, r1
 1b8:	00004d04 	andeq	r4, r0, r4, lsl #26
 1bc:	00230200 	eoreq	r0, r3, r0, lsl #4
 1c0:	00021903 	andeq	r1, r2, r3, lsl #18
 1c4:	53050100 	movwpl	r0, #20736	; 0x5100
 1c8:	02000000 	andeq	r0, r0, #0
 1cc:	04000423 	streq	r0, [r0], #-1059	; 0x423
 1d0:	00002504 	andeq	r2, r0, r4, lsl #10
 1d4:	07040500 	streq	r0, [r4, -r0, lsl #10]
 1d8:	00000042 	andeq	r0, r0, r2, asr #32
 1dc:	00e40106 	rsceq	r0, r4, r6, lsl #2
 1e0:	0c010000 	stceq	0, cr0, [r1], {-0}
 1e4:	00009f01 	andeq	r9, r0, r1, lsl #30
 1e8:	00815c00 	addeq	r5, r1, r0, lsl #24
 1ec:	00821000 	addeq	r1, r2, r0
 1f0:	00007800 	andeq	r7, r0, r0, lsl #16
 1f4:	009f0100 	addseq	r0, pc, r0, lsl #2
 1f8:	19070000 	stmdbne	r7, {}	; <UNPREDICTABLE>
 1fc:	01000002 	tsteq	r0, r2
 200:	0000530c 	andeq	r5, r0, ip, lsl #6
 204:	74910200 	ldrvc	r0, [r1], #512	; 0x200
 208:	01006608 	tsteq	r0, r8, lsl #12
 20c:	00004d0e 	andeq	r4, r0, lr, lsl #26
 210:	09540100 	ldmdbeq	r4, {r8}^
 214:	000000d6 	ldrdeq	r0, [r0], -r6
 218:	00a10e01 	adceq	r0, r1, r1, lsl #28
 21c:	55010000 	strpl	r0, [r1, #-0]
 220:	04040a00 	streq	r0, [r4], #-2560	; 0xa00
 224:	00004d04 	andeq	r4, r0, r4, lsl #26
 228:	f3010b00 	vqrdmulh.s<illegal width 8>	d0, d1, d0
 22c:	01000000 	mrseq	r0, (UNDEF: 0)
 230:	82100122 	andshi	r0, r0, #-2147483640	; 0x80000008
 234:	82580000 	subshi	r0, r8, #0
 238:	00a40000 	adceq	r0, r4, r0
 23c:	e9010000 	stmdb	r1, {}	; <UNPREDICTABLE>
 240:	0c000000 	stceq	0, cr0, [r0], {-0}
 244:	00727470 	rsbseq	r7, r2, r0, ror r4
 248:	009f2201 	addseq	r2, pc, r1, lsl #4
 24c:	91020000 	mrsls	r0, (UNDEF: 2)
 250:	02190774 	andseq	r0, r9, #30408704	; 0x1d00000
 254:	22010000 	andcs	r0, r1, #0
 258:	00000053 	andeq	r0, r0, r3, asr r0
 25c:	08709102 	ldmdaeq	r0!, {r1, r8, ip, pc}^
 260:	24010066 	strcs	r0, [r1], #-102	; 0x66
 264:	0000004d 	andeq	r0, r0, sp, asr #32
 268:	0b005401 	bleq	15274 <__bss_end+0xcc98>
 26c:	00011101 	andeq	r1, r1, r1, lsl #2
 270:	012c0100 	teqeq	ip, r0, lsl #2
 274:	00008258 	andeq	r8, r0, r8, asr r2
 278:	00008294 	muleq	r0, r4, r2
 27c:	000000d0 	ldrdeq	r0, [r0], -r0	; <UNPREDICTABLE>
 280:	00012001 	andeq	r2, r1, r1
 284:	01010700 	tsteq	r1, r0, lsl #14
 288:	2c010000 	stccs	0, cr0, [r1], {-0}
 28c:	00000120 	andeq	r0, r0, r0, lsr #2
 290:	077c9102 	ldrbeq	r9, [ip, -r2, lsl #2]!
 294:	0000012a 	andeq	r0, r0, sl, lsr #2
 298:	00532c01 	subseq	r2, r3, r1, lsl #24
 29c:	91020000 	mrsls	r0, (UNDEF: 2)
 2a0:	04040078 	streq	r0, [r4], #-120	; 0x78
 2a4:	00000126 	andeq	r0, r0, r6, lsr #2
 2a8:	22080105 	andcs	r0, r8, #1073741825	; 0x40000001
 2ac:	08000000 	stmdaeq	r0, {}	; <UNPREDICTABLE>
 2b0:	00706f74 	rsbseq	r6, r0, r4, ror pc
 2b4:	01200801 	teqeq	r0, r1, lsl #16
 2b8:	03050000 	movweq	r0, #20480	; 0x5000
 2bc:	000085c0 	andeq	r8, r0, r0, asr #11
 2c0:	00011f09 	andeq	r1, r1, r9, lsl #30
 2c4:	20090100 	andcs	r0, r9, r0, lsl #2
 2c8:	05000001 	streq	r0, [r0, #-1]
 2cc:	0085c403 	addeq	ip, r5, r3, lsl #8
 2d0:	00db0d00 	sbcseq	r0, fp, r0, lsl #26
 2d4:	06010000 	streq	r0, [r1], -r0
 2d8:	0000004d 	andeq	r0, r0, sp, asr #32
 2dc:	bc030501 	cfstr32lt	mvfx0, [r3], {1}
 2e0:	00000085 	andeq	r0, r0, r5, lsl #1
 2e4:	000000b8 	strheq	r0, [r0], -r8
 2e8:	01870002 	orreq	r0, r7, r2
 2ec:	01040000 	mrseq	r0, (UNDEF: 4)
 2f0:	00000027 	andeq	r0, r0, r7, lsr #32
 2f4:	00013401 	andeq	r3, r1, r1, lsl #8
 2f8:	00004f00 	andeq	r4, r0, r0, lsl #30
 2fc:	00829400 	addeq	r9, r2, r0, lsl #8
 300:	0083d000 	addeq	sp, r3, r0
 304:	00012c00 	andeq	r2, r1, r0, lsl #24
 308:	07020200 	streq	r0, [r2, -r0, lsl #4]
 30c:	00000090 	muleq	r0, r0, r0
 310:	42070402 	andmi	r0, r7, #33554432	; 0x2000000
 314:	02000000 	andeq	r0, r0, #0
 318:	00190801 	andseq	r0, r9, r1, lsl #16
 31c:	01030000 	mrseq	r0, (UNDEF: 3)
 320:	00000140 	andeq	r0, r0, r0, asr #2
 324:	82941c01 	addshi	r1, r4, #256	; 0x100
 328:	82e00000 	rschi	r0, r0, #0
 32c:	00f00000 	rscseq	r0, r0, r0
 330:	61010000 	mrsvs	r0, (UNDEF: 1)
 334:	04000000 	streq	r0, [r0], #-0
 338:	01007872 	tsteq	r0, r2, ror r8
 33c:	00002c1e 	andeq	r2, r0, lr, lsl ip
 340:	74910200 	ldrvc	r0, [r1], #512	; 0x200
 344:	62010500 	andvs	r0, r1, #0
 348:	01000001 	tsteq	r0, r1
 34c:	0082e02b 	addeq	lr, r2, fp, lsr #32
 350:	0082f800 	addeq	pc, r2, r0, lsl #16
 354:	00011c00 	andeq	r1, r1, r0, lsl #24
 358:	01050100 	mrseq	r0, (UNDEF: 21)
 35c:	00000139 	andeq	r0, r0, r9, lsr r1
 360:	82f83101 	rscshi	r3, r8, #1073741824	; 0x40000000
 364:	83100000 	tsthi	r0, #0
 368:	013c0000 	teqeq	ip, r0
 36c:	06010000 	streq	r0, [r1], -r0
 370:	00015a01 	andeq	r5, r1, r1, lsl #20
 374:	103a0100 	eorsne	r0, sl, r0, lsl #2
 378:	d0000083 	andle	r0, r0, r3, lsl #1
 37c:	5c000083 	stcpl	0, cr0, [r0], {131}	; 0x83
 380:	01000001 	tsteq	r0, r1
 384:	00617204 	rsbeq	r7, r1, r4, lsl #4
 388:	002c3c01 	eoreq	r3, ip, r1, lsl #24
 38c:	91020000 	mrsls	r0, (UNDEF: 2)
 390:	78720474 	ldmdavc	r2!, {r2, r4, r5, r6, sl}^
 394:	2c3d0100 	ldfcss	f0, [sp], #-0
 398:	02000000 	andeq	r0, r0, #0
 39c:	00007091 	muleq	r0, r1, r0
 3a0:	00000318 	andeq	r0, r0, r8, lsl r3
 3a4:	01f90002 	mvnseq	r0, r2
 3a8:	01040000 	mrseq	r0, (UNDEF: 4)
 3ac:	00000027 	andeq	r0, r0, r7, lsr #32
 3b0:	0001b701 	andeq	fp, r1, r1, lsl #14
 3b4:	00004f00 	andeq	r4, r0, r0, lsl #30
 3b8:	0083d000 	addeq	sp, r3, r0
 3bc:	0085bc00 	addeq	fp, r5, r0, lsl #24
 3c0:	00017b00 	andeq	r7, r1, r0, lsl #22
 3c4:	07040200 	streq	r0, [r4, -r0, lsl #4]
 3c8:	00000042 	andeq	r0, r0, r2, asr #32
 3cc:	1b060102 	blne	1807dc <__bss_end+0x178200>
 3d0:	02000000 	andeq	r0, r0, #0
 3d4:	00190801 	andseq	r0, r9, r1, lsl #16
 3d8:	02020000 	andeq	r0, r2, #0
 3dc:	0000ac05 	andeq	sl, r0, r5, lsl #24
 3e0:	07020200 	streq	r0, [r2, -r0, lsl #4]
 3e4:	00000090 	muleq	r0, r0, r0
 3e8:	69050403 	stmdbvs	r5, {r0, r1, sl}
 3ec:	0200746e 	andeq	r7, r0, #1845493760	; 0x6e000000
 3f0:	00000508 	andeq	r0, r0, r8, lsl #10
 3f4:	08020000 	stmdaeq	r2, {}	; <UNPREDICTABLE>
 3f8:	00003807 	andeq	r3, r0, r7, lsl #16
 3fc:	05040200 	streq	r0, [r4, #-512]	; 0x200
 400:	00000005 	andeq	r0, r0, r5
 404:	c2070402 	andgt	r0, r7, #33554432	; 0x2000000
 408:	04000000 	streq	r0, [r0], #-0
 40c:	07040204 	streq	r0, [r4, -r4, lsl #4]
 410:	0000003d 	andeq	r0, r0, sp, lsr r0
 414:	04060105 	streq	r0, [r6], #-261	; 0x105
 418:	00000074 	andeq	r0, r0, r4, ror r0
 41c:	22080102 	andcs	r0, r8, #-2147483648	; 0x80000000
 420:	07000000 	streq	r0, [r0, -r0]
 424:	000001e0 	andeq	r0, r0, r0, ror #3
 428:	00760402 	rsbseq	r0, r6, r2, lsl #8
 42c:	8a080000 	bhi	200434 <__bss_end+0x1f7e58>
 430:	08000000 	stmdaeq	r0, {}	; <UNPREDICTABLE>
 434:	00b50602 	adcseq	r0, r5, r2, lsl #12
 438:	73090000 	movwvc	r0, #36864	; 0x9000
 43c:	08020070 	stmdaeq	r2, {r4, r5, r6}
 440:	00000025 	andeq	r0, r0, r5, lsr #32
 444:	09002302 	stmdbeq	r0, {r1, r8, r9, sp}
 448:	0200726c 	andeq	r7, r0, #-1073741818	; 0xc0000006
 44c:	00002509 	andeq	r2, r0, r9, lsl #10
 450:	04230200 	strteq	r0, [r3], #-512	; 0x200
 454:	023e0a00 	eorseq	r0, lr, #0
 458:	02010000 	andeq	r0, r1, #0
 45c:	0000e014 	andeq	lr, r0, r4, lsl r0
 460:	02660b00 	rsbeq	r0, r6, #0
 464:	0b000000 	bleq	46c <_start-0x7b94>
 468:	000001c8 	andeq	r0, r0, r8, asr #3
 46c:	026b0b01 	rsbeq	r0, fp, #1024	; 0x400
 470:	0b020000 	bleq	80478 <__bss_end+0x77e9c>
 474:	00000179 	andeq	r0, r0, r9, ror r1
 478:	01710b03 	cmneq	r1, r3, lsl #22
 47c:	00040000 	andeq	r0, r4, r0
 480:	00019408 	andeq	r9, r1, r8, lsl #8
 484:	15021800 	strne	r1, [r2, #-2048]	; 0x800
 488:	00000140 	andeq	r0, r0, r0, asr #2
 48c:	00019a0c 	andeq	r9, r1, ip, lsl #20
 490:	25170200 	ldrcs	r0, [r7, #-512]	; 0x200
 494:	02000000 	andeq	r0, r0, #0
 498:	d20c0023 	andle	r0, ip, #35	; 0x23
 49c:	02000001 	andeq	r0, r0, #1
 4a0:	0000b518 	andeq	fp, r0, r8, lsl r5
 4a4:	04230200 	strteq	r0, [r3], #-512	; 0x200
 4a8:	00707309 	rsbseq	r7, r0, r9, lsl #6
 4ac:	00251902 	eoreq	r1, r5, r2, lsl #18
 4b0:	23020000 	movwcs	r0, #8192	; 0x2000
 4b4:	016a0c08 	cmneq	sl, r8, lsl #24
 4b8:	1a020000 	bne	804c0 <__bss_end+0x77ee4>
 4bc:	00000025 	andeq	r0, r0, r5, lsr #32
 4c0:	0c0c2302 	stceq	3, cr2, [ip], {2}
 4c4:	000001b0 			; <UNDEFINED> instruction: 0x000001b0
 4c8:	006b1b02 	rsbeq	r1, fp, r2, lsl #22
 4cc:	23020000 	movwcs	r0, #8192	; 0x2000
 4d0:	01fd0c10 	mvnseq	r0, r0, lsl ip
 4d4:	1d020000 	stcne	0, cr0, [r2, #-0]
 4d8:	00000140 	andeq	r0, r0, r0, asr #2
 4dc:	00142302 	andseq	r2, r4, r2, lsl #6
 4e0:	00e00406 	rsceq	r0, r0, r6, lsl #8
 4e4:	010d0000 	mrseq	r0, (UNDEF: 13)
 4e8:	000001bf 			; <UNDEFINED> instruction: 0x000001bf
 4ec:	d0010301 	andle	r0, r1, r1, lsl #6
 4f0:	18000083 	stmdane	r0, {r0, r1, r7}
 4f4:	88000084 	stmdahi	r0, {r2, r7}
 4f8:	01000001 	tsteq	r0, r1
 4fc:	00000198 	muleq	r0, r8, r1
 500:	7874630e 	ldmdavc	r4!, {r1, r2, r3, r8, r9, sp, lr}^
 504:	98030100 	stmdals	r3, {r8}
 508:	02000001 	andeq	r0, r0, #1
 50c:	660e7491 			; <UNDEFINED> instruction: 0x660e7491
 510:	83030100 	movwhi	r0, #12544	; 0x3100
 514:	02000000 	andeq	r0, r0, #0
 518:	130f7091 	movwne	r7, #61585	; 0xf091
 51c:	01000002 	tsteq	r0, r2
 520:	00002503 	andeq	r2, r0, r3, lsl #10
 524:	6c910200 	lfmvs	f0, 4, [r1], {0}
 528:	00e40110 	rsceq	r0, r4, r0, lsl r1
 52c:	06010000 	streq	r0, [r1], -r0
 530:	00000048 	andeq	r0, r0, r8, asr #32
 534:	00001101 	andeq	r1, r0, r1, lsl #2
 538:	008e0406 	addeq	r0, lr, r6, lsl #8
 53c:	01120000 	tsteq	r2, r0
 540:	00000273 	andeq	r0, r0, r3, ror r2
 544:	18010b01 	stmdane	r1, {r0, r8, r9, fp}
 548:	74000084 	strvc	r0, [r0], #-132	; 0x84
 54c:	02000084 	andeq	r0, r0, #132	; 0x84
 550:	c501007d 	strgt	r0, [r1, #-125]	; 0x7d
 554:	0e000001 	cdpeq	0, 0, cr0, cr0, cr1, {0}
 558:	00787463 	rsbseq	r7, r8, r3, ror #8
 55c:	01980b01 	orrseq	r0, r8, r1, lsl #22
 560:	52010000 	andpl	r0, r1, #0
 564:	4e010d00 	cdpmi	13, 0, cr0, cr1, cr0, {0}
 568:	01000002 	tsteq	r0, r2
 56c:	84740122 	ldrbthi	r0, [r4], #-290	; 0x122
 570:	85000000 	strhi	r0, [r0, #-0]
 574:	01b40000 			; <UNDEFINED> instruction: 0x01b40000
 578:	25010000 	strcs	r0, [r1, #-0]
 57c:	0e000002 	cdpeq	0, 0, cr0, cr0, cr2, {0}
 580:	00626370 	rsbeq	r6, r2, r0, ror r3
 584:	01402201 	cmpeq	r0, r1, lsl #4
 588:	91020000 	mrsls	r0, (UNDEF: 2)
 58c:	00660e74 	rsbeq	r0, r6, r4, ror lr
 590:	00832201 	addeq	r2, r3, r1, lsl #4
 594:	91020000 	mrsls	r0, (UNDEF: 2)
 598:	02390f70 	eorseq	r0, r9, #448	; 0x1c0
 59c:	22010000 	andcs	r0, r1, #0
 5a0:	0000006b 	andeq	r0, r0, fp, rrx
 5a4:	0f6c9102 	svceq	0x006c9102
 5a8:	00000213 	andeq	r0, r0, r3, lsl r2
 5ac:	00252201 	eoreq	r2, r5, r1, lsl #4
 5b0:	91020000 	mrsls	r0, (UNDEF: 2)
 5b4:	e4011068 	str	r1, [r1], #-104	; 0x68
 5b8:	01000000 	mrseq	r0, (UNDEF: 0)
 5bc:	00004806 	andeq	r4, r0, r6, lsl #16
 5c0:	00110100 	andseq	r0, r1, r0, lsl #2
 5c4:	57011300 	strpl	r1, [r1, -r0, lsl #6]
 5c8:	01000002 	tsteq	r0, r2
 5cc:	0048012b 	subeq	r0, r8, fp, lsr #2
 5d0:	85000000 	strhi	r0, [r0, #-0]
 5d4:	85800000 	strhi	r0, [r0]
 5d8:	01e00000 	mvneq	r0, r0
 5dc:	89010000 	stmdbhi	r1, {}	; <UNPREDICTABLE>
 5e0:	0e000002 	cdpeq	0, 0, cr0, cr0, cr2, {0}
 5e4:	2b010066 	blcs	40784 <__bss_end+0x381a8>
 5e8:	00000083 	andeq	r0, r0, r3, lsl #1
 5ec:	0f6c9102 	svceq	0x006c9102
 5f0:	00000239 	andeq	r0, r0, r9, lsr r2
 5f4:	006b2b01 	rsbeq	r2, fp, r1, lsl #22
 5f8:	91020000 	mrsls	r0, (UNDEF: 2)
 5fc:	02130f68 	andseq	r0, r3, #416	; 0x1a0
 600:	2b010000 	blcs	40608 <__bss_end+0x3802c>
 604:	00000025 	andeq	r0, r0, r5, lsr #32
 608:	14649102 	strbtne	r9, [r4], #-258	; 0x102
 60c:	00626370 	rsbeq	r6, r2, r0, ror r3
 610:	01402d01 	cmpeq	r0, r1, lsl #26
 614:	91020000 	mrsls	r0, (UNDEF: 2)
 618:	e4011074 	str	r1, [r1], #-116	; 0x74
 61c:	01000000 	mrseq	r0, (UNDEF: 0)
 620:	00004806 	andeq	r4, r0, r6, lsl #16
 624:	00110100 	andseq	r0, r1, r0, lsl #2
 628:	e7011500 	str	r1, [r1, -r0, lsl #10]
 62c:	01000001 	tsteq	r0, r1
 630:	00858038 	addeq	r8, r5, r8, lsr r0
 634:	0085b400 	addeq	fp, r5, r0, lsl #8
 638:	007d0200 	rsbseq	r0, sp, r0, lsl #4
 63c:	88011501 	stmdahi	r1, {r0, r8, sl, ip}
 640:	01000001 	tsteq	r0, r1
 644:	0085b442 	addeq	fp, r5, r2, asr #8
 648:	0085b800 	addeq	fp, r5, r0, lsl #16
 64c:	007d0200 	rsbseq	r0, sp, r0, lsl #4
 650:	a5011501 	strge	r1, [r1, #-1281]	; 0x501
 654:	01000001 	tsteq	r0, r1
 658:	0085b845 	addeq	fp, r5, r5, asr #16
 65c:	0085bc00 	addeq	fp, r5, r0, lsl #24
 660:	007d0200 	rsbseq	r0, sp, r0, lsl #4
 664:	020a1601 	andeq	r1, sl, #1048576	; 0x100000
 668:	21020000 	mrscs	r0, (UNDEF: 2)
 66c:	00000025 	andeq	r0, r0, r5, lsr #32
 670:	85c80305 	strbhi	r0, [r8, #773]	; 0x305
 674:	1e160000 	cdpne	0, 1, cr0, cr6, cr0, {0}
 678:	02000002 	andeq	r0, r0, #2
 67c:	00014022 	andeq	r4, r1, r2, lsr #32
 680:	cc030500 	cfstr32gt	mvfx0, [r3], {-0}
 684:	16000085 	strne	r0, [r0], -r5, lsl #1
 688:	0000022c 	andeq	r0, r0, ip, lsr #4
 68c:	01402302 	cmpeq	r0, r2, lsl #6
 690:	03050000 	movweq	r0, #20480	; 0x5000
 694:	000085d0 	ldrdeq	r8, [r0], -r0
 698:	0001ed16 	andeq	lr, r1, r6, lsl sp
 69c:	40240200 	eormi	r0, r4, r0, lsl #4
 6a0:	05000001 	streq	r0, [r0, #-1]
 6a4:	0085d403 	addeq	sp, r5, r3, lsl #8
 6a8:	00b61700 	adcseq	r1, r6, r0, lsl #14
 6ac:	0c020000 	stceq	0, cr0, [r2], {-0}
 6b0:	00000198 	muleq	r0, r8, r1
 6b4:	d8030501 	stmdale	r3, {r0, r8, sl}
 6b8:	00000085 	andeq	r0, r0, r5, lsl #1

Disassembly of section .debug_abbrev:

00000000 <.debug_abbrev>:
   0:	10001101 	andne	r1, r0, r1, lsl #2
   4:	12011106 	andne	r1, r1, #-2147483647	; 0x80000001
   8:	1b080301 	blne	200c14 <__bss_end+0x1f8638>
   c:	13082508 	movwne	r2, #34056	; 0x8508
  10:	00000005 	andeq	r0, r0, r5
  14:	25011101 	strcs	r1, [r1, #-257]	; 0x101
  18:	030b130e 	movweq	r1, #45838	; 0xb30e
  1c:	110e1b0e 	tstne	lr, lr, lsl #22
  20:	10011201 	andne	r1, r1, r1, lsl #4
  24:	02000006 	andeq	r0, r0, #6
  28:	0b0b0024 	bleq	2c00c0 <__bss_end+0x2b7ae4>
  2c:	0e030b3e 	vmoveq.16	d3[0], r0
  30:	24030000 	strcs	r0, [r3], #-0
  34:	3e0b0b00 	vmlacc.f64	d0, d11, d0
  38:	0008030b 	andeq	r0, r8, fp, lsl #6
  3c:	01130400 	tsteq	r3, r0, lsl #8
  40:	0b0b0e03 	bleq	2c3854 <__bss_end+0x2bb278>
  44:	0b3b0b3a 	bleq	ec2d34 <__bss_end+0xeba758>
  48:	00001301 	andeq	r1, r0, r1, lsl #6
  4c:	03000d05 	movweq	r0, #3333	; 0xd05
  50:	3b0b3a08 	blcc	2ce878 <__bss_end+0x2c629c>
  54:	3813490b 	ldmdacc	r3, {r0, r1, r3, r8, fp, lr}
  58:	0600000a 	streq	r0, [r0], -sl
  5c:	0c3f012e 	ldfeqs	f0, [pc], #-184	; ffffffac <__bss_end+0xffff79d0>
  60:	0b3a0e03 	bleq	e83874 <__bss_end+0xe7b298>
  64:	01110b3b 	tsteq	r1, fp, lsr fp
  68:	06400112 			; <UNDEFINED> instruction: 0x06400112
  6c:	010c4296 			; <UNDEFINED> instruction: 0x010c4296
  70:	07000013 	smladeq	r0, r3, r0, r0
  74:	0e030034 	mcreq	0, 0, r0, cr3, cr4, {1}
  78:	0b3b0b3a 	bleq	ec2d68 <__bss_end+0xeba78c>
  7c:	0a021349 	beq	84da8 <__bss_end+0x7c7cc>
  80:	2e080000 	cdpcs	0, 0, cr0, cr8, cr0, {0}
  84:	030c3f00 	movweq	r3, #52992	; 0xcf00
  88:	3b0b3a0e 	blcc	2ce8c8 <__bss_end+0x2c62ec>
  8c:	490c270b 	stmdbmi	ip, {r0, r1, r3, r8, r9, sl, sp}
  90:	12011113 	andne	r1, r1, #-1073741820	; 0xc0000004
  94:	96064001 	strls	r4, [r6], -r1
  98:	00000c42 	andeq	r0, r0, r2, asr #24
  9c:	03003409 	movweq	r3, #1033	; 0x409
  a0:	3b0b3a0e 	blcc	2ce8e0 <__bss_end+0x2c6304>
  a4:	3f13490b 	svccc	0x0013490b
  a8:	000a020c 	andeq	r0, sl, ip, lsl #4
  ac:	000f0a00 	andeq	r0, pc, r0, lsl #20
  b0:	13490b0b 	movtne	r0, #39691	; 0x9b0b
  b4:	01000000 	mrseq	r0, (UNDEF: 0)
  b8:	0e250111 	mcreq	1, 1, r0, cr5, cr1, {0}
  bc:	0e030b13 	vmoveq.32	d3[0], r0
  c0:	01110e1b 	tsteq	r1, fp, lsl lr
  c4:	06100112 			; <UNDEFINED> instruction: 0x06100112
  c8:	13020000 	movwne	r0, #8192	; 0x2000
  cc:	0b080301 	bleq	200cd8 <__bss_end+0x1f86fc>
  d0:	3b0b3a0b 	blcc	2ce904 <__bss_end+0x2c6328>
  d4:	0013010b 	andseq	r0, r3, fp, lsl #2
  d8:	000d0300 	andeq	r0, sp, r0, lsl #6
  dc:	0b3a0e03 	bleq	e838f0 <__bss_end+0xe7b314>
  e0:	13490b3b 	movtne	r0, #39739	; 0x9b3b
  e4:	00000a38 	andeq	r0, r0, r8, lsr sl
  e8:	0b000f04 	bleq	3d00 <_start-0x4300>
  ec:	0013490b 	andseq	r4, r3, fp, lsl #18
  f0:	00240500 	eoreq	r0, r4, r0, lsl #10
  f4:	0b3e0b0b 	bleq	f82d28 <__bss_end+0xf7a74c>
  f8:	00000e03 	andeq	r0, r0, r3, lsl #28
  fc:	3f012e06 	svccc	0x00012e06
 100:	3a0e030c 	bcc	380d38 <__bss_end+0x37875c>
 104:	270b3b0b 	strcs	r3, [fp, -fp, lsl #22]
 108:	1113490c 	tstne	r3, ip, lsl #18
 10c:	40011201 	andmi	r1, r1, r1, lsl #4
 110:	0c429706 	mcrreq	7, 0, r9, r2, cr6
 114:	00001301 	andeq	r1, r0, r1, lsl #6
 118:	03000507 	movweq	r0, #1287	; 0x507
 11c:	3b0b3a0e 	blcc	2ce95c <__bss_end+0x2c6380>
 120:	0213490b 	andseq	r4, r3, #180224	; 0x2c000
 124:	0800000a 	stmdaeq	r0, {r1, r3}
 128:	08030034 	stmdaeq	r3, {r2, r4, r5}
 12c:	0b3b0b3a 	bleq	ec2e1c <__bss_end+0xeba840>
 130:	0a021349 	beq	84e5c <__bss_end+0x7c880>
 134:	34090000 	strcc	r0, [r9], #-0
 138:	3a0e0300 	bcc	380d40 <__bss_end+0x378764>
 13c:	490b3b0b 	stmdbmi	fp, {r0, r1, r3, r8, r9, fp, ip, sp}
 140:	000a0213 	andeq	r0, sl, r3, lsl r2
 144:	000f0a00 	andeq	r0, pc, r0, lsl #20
 148:	00000b0b 	andeq	r0, r0, fp, lsl #22
 14c:	3f012e0b 	svccc	0x00012e0b
 150:	3a0e030c 	bcc	380d88 <__bss_end+0x3787ac>
 154:	270b3b0b 	strcs	r3, [fp, -fp, lsl #22]
 158:	1201110c 	andne	r1, r1, #3
 15c:	97064001 	strls	r4, [r6, -r1]
 160:	13010c42 	movwne	r0, #7234	; 0x1c42
 164:	050c0000 	streq	r0, [ip, #-0]
 168:	3a080300 	bcc	200d70 <__bss_end+0x1f8794>
 16c:	490b3b0b 	stmdbmi	fp, {r0, r1, r3, r8, r9, fp, ip, sp}
 170:	000a0213 	andeq	r0, sl, r3, lsl r2
 174:	00340d00 	eorseq	r0, r4, r0, lsl #26
 178:	0b3a0e03 	bleq	e8398c <__bss_end+0xe7b3b0>
 17c:	13490b3b 	movtne	r0, #39739	; 0x9b3b
 180:	0a020c3f 	beq	83284 <__bss_end+0x7aca8>
 184:	01000000 	mrseq	r0, (UNDEF: 0)
 188:	0e250111 	mcreq	1, 1, r0, cr5, cr1, {0}
 18c:	0e030b13 	vmoveq.32	d3[0], r0
 190:	01110e1b 	tsteq	r1, fp, lsl lr
 194:	06100112 			; <UNDEFINED> instruction: 0x06100112
 198:	24020000 	strcs	r0, [r2], #-0
 19c:	3e0b0b00 	vmlacc.f64	d0, d11, d0
 1a0:	000e030b 	andeq	r0, lr, fp, lsl #6
 1a4:	012e0300 	teqeq	lr, r0, lsl #6
 1a8:	0e030c3f 	mcreq	12, 0, r0, cr3, cr15, {1}
 1ac:	0b3b0b3a 	bleq	ec2e9c <__bss_end+0xeba8c0>
 1b0:	01120111 	tsteq	r2, r1, lsl r1
 1b4:	42960640 	addsmi	r0, r6, #67108864	; 0x4000000
 1b8:	0013010c 	andseq	r0, r3, ip, lsl #2
 1bc:	00340400 	eorseq	r0, r4, r0, lsl #8
 1c0:	0b3a0803 	bleq	e821d4 <__bss_end+0xe79bf8>
 1c4:	13490b3b 	movtne	r0, #39739	; 0x9b3b
 1c8:	00000a02 	andeq	r0, r0, r2, lsl #20
 1cc:	3f002e05 	svccc	0x00002e05
 1d0:	3a0e030c 	bcc	380e08 <__bss_end+0x37882c>
 1d4:	110b3b0b 	tstne	fp, fp, lsl #22
 1d8:	40011201 	andmi	r1, r1, r1, lsl #4
 1dc:	0c429606 	mcrreq	6, 0, r9, r2, cr6
 1e0:	2e060000 	cdpcs	0, 0, cr0, cr6, cr0, {0}
 1e4:	030c3f01 	movweq	r3, #52993	; 0xcf01
 1e8:	3b0b3a0e 	blcc	2cea28 <__bss_end+0x2c644c>
 1ec:	1201110b 	andne	r1, r1, #-1073741822	; 0xc0000002
 1f0:	96064001 	strls	r4, [r6], -r1
 1f4:	00000c42 	andeq	r0, r0, r2, asr #24
 1f8:	01110100 	tsteq	r1, r0, lsl #2
 1fc:	0b130e25 	bleq	4c3a98 <__bss_end+0x4bb4bc>
 200:	0e1b0e03 	cdpeq	14, 1, cr0, cr11, cr3, {0}
 204:	01120111 	tsteq	r2, r1, lsl r1
 208:	00000610 	andeq	r0, r0, r0, lsl r6
 20c:	0b002402 	bleq	921c <__bss_end+0xc40>
 210:	030b3e0b 	movweq	r3, #48651	; 0xbe0b
 214:	0300000e 	movweq	r0, #14
 218:	0b0b0024 	bleq	2c02b0 <__bss_end+0x2b7cd4>
 21c:	08030b3e 	stmdaeq	r3, {r1, r2, r3, r4, r5, r8, r9, fp}
 220:	0f040000 	svceq	0x00040000
 224:	000b0b00 	andeq	r0, fp, r0, lsl #22
 228:	00150500 	andseq	r0, r5, r0, lsl #10
 22c:	00000c27 	andeq	r0, r0, r7, lsr #24
 230:	0b000f06 	bleq	3e50 <_start-0x41b0>
 234:	0013490b 	andseq	r4, r3, fp, lsl #18
 238:	00160700 	andseq	r0, r6, r0, lsl #14
 23c:	0b3a0e03 	bleq	e83a50 <__bss_end+0xe7b474>
 240:	13490b3b 	movtne	r0, #39739	; 0x9b3b
 244:	13080000 	movwne	r0, #32768	; 0x8000
 248:	0b0e0301 	bleq	380e54 <__bss_end+0x378878>
 24c:	3b0b3a0b 	blcc	2cea80 <__bss_end+0x2c64a4>
 250:	0013010b 	andseq	r0, r3, fp, lsl #2
 254:	000d0900 	andeq	r0, sp, r0, lsl #18
 258:	0b3a0803 	bleq	e8226c <__bss_end+0xe79c90>
 25c:	13490b3b 	movtne	r0, #39739	; 0x9b3b
 260:	00000a38 	andeq	r0, r0, r8, lsr sl
 264:	0301040a 	movweq	r0, #5130	; 0x140a
 268:	3a0b0b0e 	bcc	2c2ea8 <__bss_end+0x2ba8cc>
 26c:	010b3b0b 	tsteq	fp, fp, lsl #22
 270:	0b000013 	bleq	2c4 <_start-0x7d3c>
 274:	0e030028 	cdpeq	0, 0, cr0, cr3, cr8, {1}
 278:	00000d1c 	andeq	r0, r0, ip, lsl sp
 27c:	03000d0c 	movweq	r0, #3340	; 0xd0c
 280:	3b0b3a0e 	blcc	2ceac0 <__bss_end+0x2c64e4>
 284:	3813490b 	ldmdacc	r3, {r0, r1, r3, r8, fp, lr}
 288:	0d00000a 	stceq	0, cr0, [r0, #-40]	; 0xffffffd8
 28c:	0c3f012e 	ldfeqs	f0, [pc], #-184	; 1dc <_start-0x7e24>
 290:	0b3a0e03 	bleq	e83aa4 <__bss_end+0xe7b4c8>
 294:	0c270b3b 	stceq	11, cr0, [r7], #-236	; 0xffffff14
 298:	01120111 	tsteq	r2, r1, lsl r1
 29c:	42960640 	addsmi	r0, r6, #67108864	; 0x4000000
 2a0:	0013010c 	andseq	r0, r3, ip, lsl #2
 2a4:	00050e00 	andeq	r0, r5, r0, lsl #28
 2a8:	0b3a0803 	bleq	e822bc <__bss_end+0xe79ce0>
 2ac:	13490b3b 	movtne	r0, #39739	; 0x9b3b
 2b0:	00000a02 	andeq	r0, r0, r2, lsl #20
 2b4:	0300050f 	movweq	r0, #1295	; 0x50f
 2b8:	3b0b3a0e 	blcc	2ceaf8 <__bss_end+0x2c651c>
 2bc:	0213490b 	andseq	r4, r3, #180224	; 0x2c000
 2c0:	1000000a 	andne	r0, r0, sl
 2c4:	0c3f012e 	ldfeqs	f0, [pc], #-184	; 214 <_start-0x7dec>
 2c8:	0b3a0e03 	bleq	e83adc <__bss_end+0xe7b500>
 2cc:	13490b3b 	movtne	r0, #39739	; 0x9b3b
 2d0:	00000c3c 	andeq	r0, r0, ip, lsr ip
 2d4:	00001811 	andeq	r1, r0, r1, lsl r8
 2d8:	012e1200 	teqeq	lr, r0, lsl #4
 2dc:	0e030c3f 	mcreq	12, 0, r0, cr3, cr15, {1}
 2e0:	0b3b0b3a 	bleq	ec2fd0 <__bss_end+0xeba9f4>
 2e4:	01110c27 	tsteq	r1, r7, lsr #24
 2e8:	0a400112 	beq	1000738 <__bss_end+0xff815c>
 2ec:	010c4297 			; <UNDEFINED> instruction: 0x010c4297
 2f0:	13000013 	movwne	r0, #19
 2f4:	0c3f012e 	ldfeqs	f0, [pc], #-184	; 244 <_start-0x7dbc>
 2f8:	0b3a0e03 	bleq	e83b0c <__bss_end+0xe7b530>
 2fc:	0c270b3b 	stceq	11, cr0, [r7], #-236	; 0xffffff14
 300:	01111349 	tsteq	r1, r9, asr #6
 304:	06400112 			; <UNDEFINED> instruction: 0x06400112
 308:	010c4296 			; <UNDEFINED> instruction: 0x010c4296
 30c:	14000013 	strne	r0, [r0], #-19
 310:	08030034 	stmdaeq	r3, {r2, r4, r5}
 314:	0b3b0b3a 	bleq	ec3004 <__bss_end+0xebaa28>
 318:	0a021349 	beq	85044 <__bss_end+0x7ca68>
 31c:	2e150000 	cdpcs	0, 1, cr0, cr5, cr0, {0}
 320:	030c3f00 	movweq	r3, #52992	; 0xcf00
 324:	3b0b3a0e 	blcc	2ceb64 <__bss_end+0x2c6588>
 328:	1201110b 	andne	r1, r1, #-1073741822	; 0xc0000002
 32c:	970a4001 	strls	r4, [sl, -r1]
 330:	00000c42 	andeq	r0, r0, r2, asr #24
 334:	03003416 	movweq	r3, #1046	; 0x416
 338:	3b0b3a0e 	blcc	2ceb78 <__bss_end+0x2c659c>
 33c:	0213490b 	andseq	r4, r3, #180224	; 0x2c000
 340:	1700000a 	strne	r0, [r0, -sl]
 344:	0e030034 	mcreq	0, 0, r0, cr3, cr4, {1}
 348:	0b3b0b3a 	bleq	ec3038 <__bss_end+0xebaa5c>
 34c:	0c3f1349 	ldceq	3, cr1, [pc], #-292	; 230 <_start-0x7dd0>
 350:	00000a02 	andeq	r0, r0, r2, lsl #20
	...

Disassembly of section .debug_aranges:

00000000 <.debug_aranges>:
   0:	0000001c 	andeq	r0, r0, ip, lsl r0
   4:	00000002 	andeq	r0, r0, r2
   8:	00040000 	andeq	r0, r4, r0
   c:	00000000 	andeq	r0, r0, r0
  10:	00008000 	andeq	r8, r0, r0
  14:	000000d0 	ldrdeq	r0, [r0], -r0	; <UNPREDICTABLE>
	...
  20:	0000001c 	andeq	r0, r0, ip, lsl r0
  24:	005f0002 	subseq	r0, pc, r2
  28:	00040000 	andeq	r0, r4, r0
  2c:	00000000 	andeq	r0, r0, r0
  30:	000080d0 	ldrdeq	r8, [r0], -r0
  34:	0000008c 	andeq	r0, r0, ip, lsl #1
	...
  40:	0000001c 	andeq	r0, r0, ip, lsl r0
  44:	01820002 	orreq	r0, r2, r2
  48:	00040000 	andeq	r0, r4, r0
  4c:	00000000 	andeq	r0, r0, r0
  50:	0000815c 	andeq	r8, r0, ip, asr r1
  54:	00000138 	andeq	r0, r0, r8, lsr r1
	...
  60:	0000001c 	andeq	r0, r0, ip, lsl r0
  64:	02e40002 	rsceq	r0, r4, #2
  68:	00040000 	andeq	r0, r4, r0
  6c:	00000000 	andeq	r0, r0, r0
  70:	00008294 	muleq	r0, r4, r2
  74:	0000013c 	andeq	r0, r0, ip, lsr r1
	...
  80:	0000001c 	andeq	r0, r0, ip, lsl r0
  84:	03a00002 	moveq	r0, #2
  88:	00040000 	andeq	r0, r4, r0
  8c:	00000000 	andeq	r0, r0, r0
  90:	000083d0 	ldrdeq	r8, [r0], -r0
  94:	000001ec 	andeq	r0, r0, ip, ror #3
	...

Disassembly of section .debug_loc:

00000000 <.debug_loc>:
   0:	00000000 	andeq	r0, r0, r0
   4:	00000004 	andeq	r0, r0, r4
   8:	007d0002 	rsbseq	r0, sp, r2
   c:	00000004 	andeq	r0, r0, r4
  10:	00000008 	andeq	r0, r0, r8
  14:	047d0002 	ldrbteq	r0, [sp], #-2
  18:	00000008 	andeq	r0, r0, r8
  1c:	00000024 	andeq	r0, r0, r4, lsr #32
  20:	107d0002 	rsbsne	r0, sp, r2
	...
  2c:	00000024 	andeq	r0, r0, r4, lsr #32
  30:	00000028 	andeq	r0, r0, r8, lsr #32
  34:	007d0002 	rsbseq	r0, sp, r2
  38:	00000028 	andeq	r0, r0, r8, lsr #32
  3c:	0000002c 	andeq	r0, r0, ip, lsr #32
  40:	047d0002 	ldrbteq	r0, [sp], #-2
  44:	0000002c 	andeq	r0, r0, ip, lsr #32
  48:	00000048 	andeq	r0, r0, r8, asr #32
  4c:	107d0002 	rsbsne	r0, sp, r2
	...
  58:	00000048 	andeq	r0, r0, r8, asr #32
  5c:	0000004c 	andeq	r0, r0, ip, asr #32
  60:	007d0002 	rsbseq	r0, sp, r2
  64:	0000004c 	andeq	r0, r0, ip, asr #32
  68:	0000008c 	andeq	r0, r0, ip, lsl #1
  6c:	087d0002 	ldmdaeq	sp!, {r1}^
	...
  7c:	00000004 	andeq	r0, r0, r4
  80:	007d0002 	rsbseq	r0, sp, r2
  84:	00000004 	andeq	r0, r0, r4
  88:	00000008 	andeq	r0, r0, r8
  8c:	087d0002 	ldmdaeq	sp!, {r1}^
  90:	00000008 	andeq	r0, r0, r8
  94:	000000b4 	strheq	r0, [r0], -r4
  98:	107d0002 	rsbsne	r0, sp, r2
	...
  a4:	000000b4 	strheq	r0, [r0], -r4
  a8:	000000b8 	strheq	r0, [r0], -r8
  ac:	007d0002 	rsbseq	r0, sp, r2
  b0:	000000b8 	strheq	r0, [r0], -r8
  b4:	000000bc 	strheq	r0, [r0], -ip
  b8:	047d0002 	ldrbteq	r0, [sp], #-2
  bc:	000000bc 	strheq	r0, [r0], -ip
  c0:	000000fc 	strdeq	r0, [r0], -ip
  c4:	107d0002 	rsbsne	r0, sp, r2
	...
  d0:	000000fc 	strdeq	r0, [r0], -ip
  d4:	00000100 	andeq	r0, r0, r0, lsl #2
  d8:	007d0002 	rsbseq	r0, sp, r2
  dc:	00000100 	andeq	r0, r0, r0, lsl #2
  e0:	00000138 	andeq	r0, r0, r8, lsr r1
  e4:	087d0002 	ldmdaeq	sp!, {r1}^
	...
  f4:	00000004 	andeq	r0, r0, r4
  f8:	007d0002 	rsbseq	r0, sp, r2
  fc:	00000004 	andeq	r0, r0, r4
 100:	00000008 	andeq	r0, r0, r8
 104:	047d0002 	ldrbteq	r0, [sp], #-2
 108:	00000008 	andeq	r0, r0, r8
 10c:	0000004c 	andeq	r0, r0, ip, asr #32
 110:	107d0002 	rsbsne	r0, sp, r2
	...
 11c:	0000004c 	andeq	r0, r0, ip, asr #32
 120:	00000050 	andeq	r0, r0, r0, asr r0
 124:	007d0002 	rsbseq	r0, sp, r2
 128:	00000050 	andeq	r0, r0, r0, asr r0
 12c:	00000064 	andeq	r0, r0, r4, rrx
 130:	087d0002 	ldmdaeq	sp!, {r1}^
	...
 13c:	00000064 	andeq	r0, r0, r4, rrx
 140:	00000068 	andeq	r0, r0, r8, rrx
 144:	007d0002 	rsbseq	r0, sp, r2
 148:	00000068 	andeq	r0, r0, r8, rrx
 14c:	0000007c 	andeq	r0, r0, ip, ror r0
 150:	087d0002 	ldmdaeq	sp!, {r1}^
	...
 15c:	0000007c 	andeq	r0, r0, ip, ror r0
 160:	00000080 	andeq	r0, r0, r0, lsl #1
 164:	007d0002 	rsbseq	r0, sp, r2
 168:	00000080 	andeq	r0, r0, r0, lsl #1
 16c:	00000084 	andeq	r0, r0, r4, lsl #1
 170:	047d0002 	ldrbteq	r0, [sp], #-2
 174:	00000084 	andeq	r0, r0, r4, lsl #1
 178:	0000013c 	andeq	r0, r0, ip, lsr r1
 17c:	107d0002 	rsbsne	r0, sp, r2
	...
 18c:	00000004 	andeq	r0, r0, r4
 190:	007d0002 	rsbseq	r0, sp, r2
 194:	00000004 	andeq	r0, r0, r4
 198:	00000008 	andeq	r0, r0, r8
 19c:	047d0002 	ldrbteq	r0, [sp], #-2
 1a0:	00000008 	andeq	r0, r0, r8
 1a4:	00000048 	andeq	r0, r0, r8, asr #32
 1a8:	187d0002 	ldmdane	sp!, {r1}^
	...
 1b4:	000000a4 	andeq	r0, r0, r4, lsr #1
 1b8:	000000a8 	andeq	r0, r0, r8, lsr #1
 1bc:	007d0002 	rsbseq	r0, sp, r2
 1c0:	000000a8 	andeq	r0, r0, r8, lsr #1
 1c4:	000000ac 	andeq	r0, r0, ip, lsr #1
 1c8:	047d0002 	ldrbteq	r0, [sp], #-2
 1cc:	000000ac 	andeq	r0, r0, ip, lsr #1
 1d0:	00000130 	andeq	r0, r0, r0, lsr r1
 1d4:	187d0002 	ldmdane	sp!, {r1}^
	...
 1e0:	00000130 	andeq	r0, r0, r0, lsr r1
 1e4:	00000134 	andeq	r0, r0, r4, lsr r1
 1e8:	007d0002 	rsbseq	r0, sp, r2
 1ec:	00000134 	andeq	r0, r0, r4, lsr r1
 1f0:	00000138 	andeq	r0, r0, r8, lsr r1
 1f4:	047d0002 	ldrbteq	r0, [sp], #-2
 1f8:	00000138 	andeq	r0, r0, r8, lsr r1
 1fc:	000001b0 			; <UNDEFINED> instruction: 0x000001b0
 200:	207d0002 	rsbscs	r0, sp, r2
	...

Disassembly of section .debug_str:

00000000 <.debug_str>:
   0:	676e6f6c 	strbvs	r6, [lr, -ip, ror #30]!
   4:	6e6f6c20 	cdpvs	12, 6, cr6, cr15, cr0, {1}
   8:	6e692067 	cdpvs	0, 6, cr2, cr9, cr7, {3}
   c:	6d6b0074 	stclvs	0, cr0, [fp, #-464]!	; 0xfffffe30
  10:	006e6961 	rsbeq	r6, lr, r1, ror #18
  14:	42747063 	rsbsmi	r7, r4, #99	; 0x63
  18:	736e7500 	cmnvc	lr, #0
  1c:	656e6769 	strbvs	r6, [lr, #-1897]!	; 0x769
  20:	68632064 	stmdavs	r3!, {r2, r5, r6, sp}^
  24:	47007261 	strmi	r7, [r0, -r1, ror #4]
  28:	4320554e 	teqmi	r0, #327155712	; 0x13800000
  2c:	372e3420 	strcc	r3, [lr, -r0, lsr #8]!
  30:	6300312e 	movwvs	r3, #302	; 0x12e
  34:	00417470 	subeq	r7, r1, r0, ror r4
  38:	676e6f6c 	strbvs	r6, [lr, -ip, ror #30]!
  3c:	6e6f6c20 	cdpvs	12, 6, cr6, cr15, cr0, {1}
  40:	6e752067 	cdpvs	0, 7, cr2, cr5, cr7, {3}
  44:	6e676973 	mcrvs	9, 3, r6, cr7, cr3, {3}
  48:	69206465 	stmdbvs	r0!, {r0, r2, r5, r6, sl, sp, lr}
  4c:	2f00746e 	svccs	0x0000746e
  50:	656d6f68 	strbvs	r6, [sp, #-3944]!	; 0xf68
  54:	65626d2f 	strbvs	r6, [r2, #-3375]!	; 0xd2f
  58:	6168636e 	cmnvs	r8, lr, ror #6
  5c:	2f6f726b 	svccs	0x006f726b
  60:	6ca9c354 	stcvs	3, cr12, [r9], #336	; 0x150
  64:	6863a9c3 	stmdavs	r3!, {r0, r1, r6, r7, r8, fp, sp, pc}^
  68:	65677261 	strbvs	r7, [r7, #-609]!	; 0x261
  6c:	746e656d 	strbtvc	r6, [lr], #-1389	; 0x56d
  70:	736f2f73 	cmnvc	pc, #460	; 0x1cc
  74:	2d656970 	stclcs	9, cr6, [r5, #-448]!	; 0xfffffe40
  78:	72617473 	rsbvc	r7, r1, #1929379840	; 0x73000000
  7c:	75660074 	strbvc	r0, [r6, #-116]!	; 0x74
  80:	0041636e 	subeq	r6, r1, lr, ror #6
  84:	636e7566 	cmnvs	lr, #427819008	; 0x19800000
  88:	74630042 	strbtvc	r0, [r3], #-66	; 0x42
  8c:	00735f78 	rsbseq	r5, r3, r8, ror pc
  90:	726f6873 	rsbvc	r6, pc, #7536640	; 0x730000
  94:	6e752074 	mrcvs	0, 3, r2, cr5, cr4, {3}
  98:	6e676973 	mcrvs	9, 3, r6, cr7, cr3, {3}
  9c:	69206465 	stmdbvs	r0!, {r0, r2, r5, r6, sl, sp, lr}
  a0:	6b00746e 	blvs	1d260 <__bss_end+0x14c84>
  a4:	656e7265 	strbvs	r7, [lr, #-613]!	; 0x265
  a8:	00632e6c 	rsbeq	r2, r3, ip, ror #28
  ac:	726f6873 	rsbvc	r6, pc, #7536640	; 0x730000
  b0:	6e692074 	mcrvs	0, 3, r2, cr9, cr4, {3}
  b4:	75630074 	strbvc	r0, [r3, #-116]!	; 0x74
  b8:	6e657272 	mcrvs	2, 3, r7, cr5, cr2, {3}
  bc:	74635f74 	strbtvc	r5, [r3], #-3956	; 0xf74
  c0:	69730078 	ldmdbvs	r3!, {r3, r4, r5, r6}^
  c4:	7974657a 	ldmdbvc	r4!, {r1, r3, r4, r5, r6, r8, sl, sp, lr}^
  c8:	70006570 	andvc	r6, r0, r0, ror r5
  cc:	6c417968 	mcrrvs	9, 6, r7, r1, cr8
  d0:	2e636f6c 	cdpcs	15, 6, cr6, cr3, cr12, {3}
  d4:	72700063 	rsbsvc	r0, r0, #99	; 0x63
  d8:	66007665 	strvs	r7, [r0], -r5, ror #12
  dc:	6c656572 	cfstr64vs	mvdx6, [r5], #-456	; 0xfffffe38
  e0:	00747369 	rsbseq	r7, r4, r9, ror #6
  e4:	41796870 	cmnmi	r9, r0, ror r8
  e8:	636f6c6c 	cmnvs	pc, #27648	; 0x6c00
  ec:	6c6c615f 	stfvse	f6, [ip], #-380	; 0xfffffe84
  f0:	7000636f 	andvc	r6, r0, pc, ror #6
  f4:	6c417968 	mcrrvs	9, 6, r7, r1, cr8
  f8:	5f636f6c 	svcpl	0x00636f6c
  fc:	65657266 	strbvs	r7, [r5, #-614]!	; 0x266
 100:	61656800 	cmnvs	r5, r0, lsl #16
 104:	74735f70 	ldrbtvc	r5, [r3], #-3952	; 0xf70
 108:	00747261 	rsbseq	r7, r4, r1, ror #4
 10c:	7478656e 	ldrbtvc	r6, [r8], #-1390	; 0x56e
 110:	79687000 	stmdbvc	r8!, {ip, sp, lr}^
 114:	6f6c6c41 	svcvs	0x006c6c41
 118:	6e695f63 	cdpvs	15, 6, cr5, cr9, cr3, {3}
 11c:	68007469 	stmdavs	r0, {r0, r3, r5, r6, sl, ip, sp, lr}
 120:	5f706165 	svcpl	0x00706165
 124:	696d696c 	stmdbvs	sp!, {r2, r3, r5, r6, r8, fp, sp, lr}^
 128:	65680074 	strbvs	r0, [r8, #-116]!	; 0x74
 12c:	735f7061 	cmpvc	pc, #97	; 0x61
 130:	00657a69 	rsbeq	r7, r5, r9, ror #20
 134:	632e7768 	teqvs	lr, #27262976	; 0x1a00000
 138:	64656c00 	strbtvs	r6, [r5], #-3072	; 0xc00
 13c:	006e6f5f 	rsbeq	r6, lr, pc, asr pc
 140:	5f746573 	svcpl	0x00746573
 144:	6b636974 	blvs	18da71c <__bss_end+0x18d2140>
 148:	646e615f 	strbtvs	r6, [lr], #-351	; 0x15f
 14c:	616e655f 	cmnvs	lr, pc, asr r5
 150:	5f656c62 	svcpl	0x00656c62
 154:	656d6974 	strbvs	r6, [sp, #-2420]!	; 0x974
 158:	6e690072 	mcrvs	0, 3, r0, cr9, cr2, {3}
 15c:	685f7469 	ldmdavs	pc, {r0, r3, r5, r6, sl, ip, sp, lr}^	; <UNPREDICTABLE>
 160:	656c0077 	strbvs	r0, [ip, #-119]!	; 0x77
 164:	666f5f64 	strbtvs	r5, [pc], -r4, ror #30
 168:	64610066 	strbtvs	r0, [r1], #-102	; 0x66
 16c:	73736572 	cmnvc	r3, #478150656	; 0x1c800000
 170:	52455400 	subpl	r5, r5, #0
 174:	454e494d 	strbmi	r4, [lr, #-2381]	; 0x94d
 178:	494e4900 	stmdbmi	lr, {r8, fp, lr}^
 17c:	4c414954 	mcrrmi	9, 5, r4, r1, cr4
 180:	54415349 	strbpl	r5, [r1], #-841	; 0x349
 184:	004e4f49 	subeq	r4, lr, r9, asr #30
 188:	72617473 	rsbvc	r7, r1, #1929379840	; 0x73000000
 18c:	63735f74 	cmnvs	r3, #464	; 0x1d0
 190:	00646568 	rsbeq	r6, r4, r8, ror #10
 194:	5f626370 	svcpl	0x00626370
 198:	64690073 	strbtvs	r0, [r9], #-115	; 0x73
 19c:	6f72705f 	svcvs	0x0072705f
 1a0:	73736563 	cmnvc	r3, #415236096	; 0x18c00000
 1a4:	78746300 	ldmdavc	r4!, {r8, r9, sp, lr}^
 1a8:	6977735f 	ldmdbvs	r7!, {r0, r1, r2, r3, r4, r6, r8, r9, ip, sp, lr}^
 1ac:	00686374 	rsbeq	r6, r8, r4, ror r3
 1b0:	73677261 	cmnvc	r7, #268435462	; 0x10000006
 1b4:	7300665f 	movwvc	r6, #1631	; 0x65f
 1b8:	64656863 	strbtvs	r6, [r5], #-2147	; 0x863
 1bc:	6900632e 	stmdbvs	r0, {r1, r2, r3, r5, r8, r9, sp, lr}
 1c0:	5f74696e 	svcpl	0x0074696e
 1c4:	00787463 	rsbseq	r7, r8, r3, ror #8
 1c8:	43455845 	movtmi	r5, #22597	; 0x5845
 1cc:	4f495455 	svcmi	0x00495455
 1d0:	7473004e 	ldrbtvc	r0, [r3], #-78	; 0x4e
 1d4:	5f657461 	svcpl	0x00657461
 1d8:	636f7270 	cmnvs	pc, #7
 1dc:	00737365 	rsbseq	r7, r3, r5, ror #6
 1e0:	636e7566 	cmnvs	lr, #427819008	; 0x19800000
 1e4:	7300745f 	movwvc	r7, #1119	; 0x45f
 1e8:	74726174 	ldrbtvc	r6, [r2], #-372	; 0x174
 1ec:	7275635f 	rsbsvc	r6, r5, #2080374785	; 0x7c000001
 1f0:	746e6572 	strbtvc	r6, [lr], #-1394	; 0x572
 1f4:	6f72705f 	svcvs	0x0072705f
 1f8:	73736563 	cmnvc	r3, #415236096	; 0x18c00000
 1fc:	78656e00 	stmdavc	r5!, {r9, sl, fp, sp, lr}^
 200:	72705f74 	rsbsvc	r5, r0, #464	; 0x1d0
 204:	7365636f 	cmnvc	r5, #-1140850687	; 0xbc000001
 208:	6f630073 	svcvs	0x00630073
 20c:	6574706d 	ldrbvs	r7, [r4, #-109]!	; 0x6d
 210:	73007275 	movwvc	r7, #629	; 0x275
 214:	6b636174 	blvs	18d87ec <__bss_end+0x18d0210>
 218:	7a69735f 	bvc	1a5cf9c <__bss_end+0x1a549c0>
 21c:	69660065 	stmdbvs	r6!, {r0, r2, r5, r6}^
 220:	5f747372 	svcpl	0x00747372
 224:	636f7270 	cmnvs	pc, #7
 228:	00737365 	rsbseq	r7, r3, r5, ror #6
 22c:	7473616c 	ldrbtvc	r6, [r3], #-364	; 0x16c
 230:	6f72705f 	svcvs	0x0072705f
 234:	73736563 	cmnvc	r3, #415236096	; 0x18c00000
 238:	67726100 	ldrbvs	r6, [r2, -r0, lsl #2]!
 23c:	72700073 	rsbsvc	r0, r0, #115	; 0x73
 240:	7365636f 	cmnvc	r5, #-1140850687	; 0xbc000001
 244:	74735f73 	ldrbtvc	r5, [r3], #-3955	; 0xf73
 248:	5f657461 	svcpl	0x00657461
 24c:	6e690073 	mcrvs	0, 3, r0, cr9, cr3, {3}
 250:	705f7469 	subsvc	r7, pc, r9, ror #8
 254:	63006263 	movwvs	r6, #611	; 0x263
 258:	74616572 	strbtvc	r6, [r1], #-1394	; 0x572
 25c:	72705f65 	rsbsvc	r5, r0, #404	; 0x194
 260:	7365636f 	cmnvc	r5, #-1140850687	; 0xbc000001
 264:	52500073 	subspl	r0, r0, #115	; 0x73
 268:	45005445 	strmi	r5, [r0, #-1093]	; 0x445
 26c:	524f444e 	subpl	r4, pc, #1308622848	; 0x4e000000
 270:	7300494d 	movwvc	r4, #2381	; 0x94d
 274:	63746977 	cmnvs	r4, #1949696	; 0x1dc000
 278:	6f745f68 	svcvs	0x00745f68
	...

Disassembly of section .debug_frame:

00000000 <.debug_frame>:
   0:	0000000c 	andeq	r0, r0, ip
   4:	ffffffff 			; <UNDEFINED> instruction: 0xffffffff
   8:	7c020001 	stcvc	0, cr0, [r2], {1}
   c:	000d0c0e 	andeq	r0, sp, lr, lsl #24
  10:	00000014 	andeq	r0, r0, r4, lsl r0
  14:	00000000 	andeq	r0, r0, r0
  18:	000080d0 	ldrdeq	r8, [r0], -r0
  1c:	00000024 	andeq	r0, r0, r4, lsr #32
  20:	8e040e42 	cdphi	14, 0, cr0, cr4, cr2, {2}
  24:	100e4201 	andne	r4, lr, r1, lsl #4
  28:	00000014 	andeq	r0, r0, r4, lsl r0
  2c:	00000000 	andeq	r0, r0, r0
  30:	000080f4 	strdeq	r8, [r0], -r4
  34:	00000024 	andeq	r0, r0, r4, lsr #32
  38:	8e040e42 	cdphi	14, 0, cr0, cr4, cr2, {2}
  3c:	100e4201 	andne	r4, lr, r1, lsl #4
  40:	00000014 	andeq	r0, r0, r4, lsl r0
  44:	00000000 	andeq	r0, r0, r0
  48:	00008118 	andeq	r8, r0, r8, lsl r1
  4c:	00000044 	andeq	r0, r0, r4, asr #32
  50:	83080e42 	movwhi	r0, #36418	; 0x8e42
  54:	00018e02 	andeq	r8, r1, r2, lsl #28
  58:	0000000c 	andeq	r0, r0, ip
  5c:	ffffffff 			; <UNDEFINED> instruction: 0xffffffff
  60:	7c020001 	stcvc	0, cr0, [r2], {1}
  64:	000d0c0e 	andeq	r0, sp, lr, lsl #24
  68:	00000018 	andeq	r0, r0, r8, lsl r0
  6c:	00000058 	andeq	r0, r0, r8, asr r0
  70:	0000815c 	andeq	r8, r0, ip, asr r1
  74:	000000b4 	strheq	r0, [r0], -r4
  78:	84080e42 	strhi	r0, [r8], #-3650	; 0xe42
  7c:	42018502 	andmi	r8, r1, #8388608	; 0x800000
  80:	0000100e 	andeq	r1, r0, lr
  84:	00000014 	andeq	r0, r0, r4, lsl r0
  88:	00000058 	andeq	r0, r0, r8, asr r0
  8c:	00008210 	andeq	r8, r0, r0, lsl r2
  90:	00000048 	andeq	r0, r0, r8, asr #32
  94:	84040e42 	strhi	r0, [r4], #-3650	; 0xe42
  98:	100e4201 	andne	r4, lr, r1, lsl #4
  9c:	00000010 	andeq	r0, r0, r0, lsl r0
  a0:	00000058 	andeq	r0, r0, r8, asr r0
  a4:	00008258 	andeq	r8, r0, r8, asr r2
  a8:	0000003c 	andeq	r0, r0, ip, lsr r0
  ac:	00080e42 	andeq	r0, r8, r2, asr #28
  b0:	0000000c 	andeq	r0, r0, ip
  b4:	ffffffff 			; <UNDEFINED> instruction: 0xffffffff
  b8:	7c020001 	stcvc	0, cr0, [r2], {1}
  bc:	000d0c0e 	andeq	r0, sp, lr, lsl #24
  c0:	00000014 	andeq	r0, r0, r4, lsl r0
  c4:	000000b0 	strheq	r0, [r0], -r0	; <UNPREDICTABLE>
  c8:	00008294 	muleq	r0, r4, r2
  cc:	0000004c 	andeq	r0, r0, ip, asr #32
  d0:	8e040e42 	cdphi	14, 0, cr0, cr4, cr2, {2}
  d4:	100e4201 	andne	r4, lr, r1, lsl #4
  d8:	00000014 	andeq	r0, r0, r4, lsl r0
  dc:	000000b0 	strheq	r0, [r0], -r0	; <UNPREDICTABLE>
  e0:	000082e0 	andeq	r8, r0, r0, ror #5
  e4:	00000018 	andeq	r0, r0, r8, lsl r0
  e8:	83080e42 	movwhi	r0, #36418	; 0x8e42
  ec:	00018e02 	andeq	r8, r1, r2, lsl #28
  f0:	00000014 	andeq	r0, r0, r4, lsl r0
  f4:	000000b0 	strheq	r0, [r0], -r0	; <UNPREDICTABLE>
  f8:	000082f8 	strdeq	r8, [r0], -r8	; <UNPREDICTABLE>
  fc:	00000018 	andeq	r0, r0, r8, lsl r0
 100:	83080e42 	movwhi	r0, #36418	; 0x8e42
 104:	00018e02 	andeq	r8, r1, r2, lsl #28
 108:	00000014 	andeq	r0, r0, r4, lsl r0
 10c:	000000b0 	strheq	r0, [r0], -r0	; <UNPREDICTABLE>
 110:	00008310 	andeq	r8, r0, r0, lsl r3
 114:	000000c0 	andeq	r0, r0, r0, asr #1
 118:	8e040e42 	cdphi	14, 0, cr0, cr4, cr2, {2}
 11c:	100e4201 	andne	r4, lr, r1, lsl #4
 120:	0000000c 	andeq	r0, r0, ip
 124:	ffffffff 			; <UNDEFINED> instruction: 0xffffffff
 128:	7c020001 	stcvc	0, cr0, [r2], {1}
 12c:	000d0c0e 	andeq	r0, sp, lr, lsl #24
 130:	00000014 	andeq	r0, r0, r4, lsl r0
 134:	00000120 	andeq	r0, r0, r0, lsr #2
 138:	000083d0 	ldrdeq	r8, [r0], -r0
 13c:	00000048 	andeq	r0, r0, r8, asr #32
 140:	8e040e42 	cdphi	14, 0, cr0, cr4, cr2, {2}
 144:	180e4201 	stmdane	lr, {r0, r9, lr}
 148:	0000000c 	andeq	r0, r0, ip
 14c:	00000120 	andeq	r0, r0, r0, lsr #2
 150:	00008418 	andeq	r8, r0, r8, lsl r4
 154:	0000005c 	andeq	r0, r0, ip, asr r0
 158:	00000014 	andeq	r0, r0, r4, lsl r0
 15c:	00000120 	andeq	r0, r0, r0, lsr #2
 160:	00008474 	andeq	r8, r0, r4, ror r4
 164:	0000008c 	andeq	r0, r0, ip, lsl #1
 168:	8e040e42 	cdphi	14, 0, cr0, cr4, cr2, {2}
 16c:	180e4201 	stmdane	lr, {r0, r9, lr}
 170:	00000014 	andeq	r0, r0, r4, lsl r0
 174:	00000120 	andeq	r0, r0, r0, lsr #2
 178:	00008500 	andeq	r8, r0, r0, lsl #10
 17c:	00000080 	andeq	r0, r0, r0, lsl #1
 180:	8e040e42 	cdphi	14, 0, cr0, cr4, cr2, {2}
 184:	200e4201 	andcs	r4, lr, r1, lsl #4
 188:	0000000c 	andeq	r0, r0, ip
 18c:	00000120 	andeq	r0, r0, r0, lsr #2
 190:	00008580 	andeq	r8, r0, r0, lsl #11
 194:	00000034 	andeq	r0, r0, r4, lsr r0
 198:	0000000c 	andeq	r0, r0, ip
 19c:	00000120 	andeq	r0, r0, r0, lsr #2
 1a0:	000085b4 			; <UNDEFINED> instruction: 0x000085b4
 1a4:	00000004 	andeq	r0, r0, r4
 1a8:	0000000c 	andeq	r0, r0, ip
 1ac:	00000120 	andeq	r0, r0, r0, lsr #2
 1b0:	000085b8 			; <UNDEFINED> instruction: 0x000085b8
 1b4:	00000004 	andeq	r0, r0, r4
