
kernel.elf:     file format elf32-littlearm


Disassembly of section .text:

00008000 <_start>:
    8000:	e59ff018 	ldr	pc, [pc, #24]	; 8020 <reset_handler>
    8004:	e59ff018 	ldr	pc, [pc, #24]	; 8024 <undefined_handler>
    8008:	e59ff018 	ldr	pc, [pc, #24]	; 8028 <swi_handler>
    800c:	e59ff018 	ldr	pc, [pc, #24]	; 802c <prefetch_handler>
    8010:	e59ff018 	ldr	pc, [pc, #24]	; 8030 <data_handler>
    8014:	e59ff018 	ldr	pc, [pc, #24]	; 8034 <unused_handler>
    8018:	e59ff018 	ldr	pc, [pc, #24]	; 8038 <irq_handler>
    801c:	e59ff018 	ldr	pc, [pc, #24]	; 803c <fiq_handler>

00008020 <reset_handler>:
    8020:	00008040 	andeq	r8, r0, r0, asr #32

00008024 <undefined_handler>:
    8024:	00008084 	andeq	r8, r0, r4, lsl #1

00008028 <swi_handler>:
    8028:	00008088 	andeq	r8, r0, r8, lsl #1

0000802c <prefetch_handler>:
    802c:	0000808c 	andeq	r8, r0, ip, lsl #1

00008030 <data_handler>:
    8030:	00008090 	muleq	r0, r0, r0

00008034 <unused_handler>:
    8034:	00008094 	muleq	r0, r4, r0

00008038 <irq_handler>:
    8038:	000080cc 	andeq	r8, r0, ip, asr #1

0000803c <fiq_handler>:
    803c:	00008098 	muleq	r0, r8, r0

00008040 <reset>:
    8040:	e3a00902 	mov	r0, #32768	; 0x8000
    8044:	e3a01000 	mov	r1, #0
    8048:	e8b003fc 	ldm	r0!, {r2, r3, r4, r5, r6, r7, r8, r9}
    804c:	e8a103fc 	stmia	r1!, {r2, r3, r4, r5, r6, r7, r8, r9}
    8050:	e8b003fc 	ldm	r0!, {r2, r3, r4, r5, r6, r7, r8, r9}
    8054:	e8a103fc 	stmia	r1!, {r2, r3, r4, r5, r6, r7, r8, r9}
    8058:	e3a000d1 	mov	r0, #209	; 0xd1
    805c:	e121f000 	msr	CPSR_c, r0
    8060:	e3a0d90e 	mov	sp, #229376	; 0x38000
    8064:	e3a000d2 	mov	r0, #210	; 0xd2
    8068:	e121f000 	msr	CPSR_c, r0
    806c:	e3a0d701 	mov	sp, #262144	; 0x40000
    8070:	e3a000d3 	mov	r0, #211	; 0xd3
    8074:	e121f000 	msr	CPSR_c, r0
    8078:	e3a0d912 	mov	sp, #294912	; 0x48000
    807c:	eb000029 	bl	8128 <kmain>

00008080 <hang>:
    8080:	eafffffe 	b	8080 <hang>

00008084 <undefined>:
    8084:	eafffffe 	b	8084 <undefined>

00008088 <swi>:
    8088:	eafffffe 	b	8088 <swi>

0000808c <prefetch>:
    808c:	eafffffe 	b	808c <prefetch>

00008090 <data>:
    8090:	eafffffe 	b	8090 <data>

00008094 <unused>:
    8094:	eafffffe 	b	8094 <unused>

00008098 <fiq>:
    8098:	eafffffe 	b	8098 <fiq>

0000809c <PUT32>:
    809c:	e5801000 	str	r1, [r0]
    80a0:	e12fff1e 	bx	lr

000080a4 <PUT16>:
    80a4:	e1c010b0 	strh	r1, [r0]
    80a8:	e12fff1e 	bx	lr

000080ac <PUT8>:
    80ac:	e5c01000 	strb	r1, [r0]
    80b0:	e12fff1e 	bx	lr

000080b4 <GET32>:
    80b4:	e5900000 	ldr	r0, [r0]
    80b8:	e12fff1e 	bx	lr

000080bc <GETPC>:
    80bc:	e1a0000e 	mov	r0, lr
    80c0:	e12fff1e 	bx	lr

000080c4 <BRANCHTO>:
    80c4:	e12fff10 	bx	r0

000080c8 <dummy>:
    80c8:	e12fff1e 	bx	lr

000080cc <irq>:
    80cc:	eafffffe 	b	80cc <irq>

000080d0 <ping>:
    80d0:	e52de004 	push	{lr}		; (str lr, [sp, #-4]!)
    80d4:	e24dd00c 	sub	sp, sp, #12
    80d8:	e3a03000 	mov	r3, #0
    80dc:	e58d3004 	str	r3, [sp, #4]
    80e0:	e59d3004 	ldr	r3, [sp, #4]
    80e4:	e2833001 	add	r3, r3, #1
    80e8:	e58d3004 	str	r3, [sp, #4]
    80ec:	e59f0004 	ldr	r0, [pc, #4]	; 80f8 <ping+0x28>
    80f0:	eb0000d3 	bl	8444 <switch_to>
    80f4:	eafffff9 	b	80e0 <ping+0x10>
    80f8:	000084c0 	andeq	r8, r0, r0, asr #9

000080fc <pong>:
    80fc:	e52de004 	push	{lr}		; (str lr, [sp, #-4]!)
    8100:	e24dd00c 	sub	sp, sp, #12
    8104:	e3a03001 	mov	r3, #1
    8108:	e58d3004 	str	r3, [sp, #4]
    810c:	e59d3004 	ldr	r3, [sp, #4]
    8110:	e2833002 	add	r3, r3, #2
    8114:	e58d3004 	str	r3, [sp, #4]
    8118:	e59f0004 	ldr	r0, [pc, #4]	; 8124 <pong+0x28>
    811c:	eb0000c8 	bl	8444 <switch_to>
    8120:	eafffff9 	b	810c <pong+0x10>
    8124:	000084ac 	andeq	r8, r0, ip, lsr #9

00008128 <kmain>:
    8128:	e92d4008 	push	{r3, lr}
    812c:	eb000082 	bl	833c <init_hw>
    8130:	e59f0038 	ldr	r0, [pc, #56]	; 8170 <kmain+0x48>
    8134:	e59f1038 	ldr	r1, [pc, #56]	; 8174 <kmain+0x4c>
    8138:	e3a02b01 	mov	r2, #1024	; 0x400
    813c:	eb0000ae 	bl	83fc <init_ctx>
    8140:	e59f0030 	ldr	r0, [pc, #48]	; 8178 <kmain+0x50>
    8144:	e59f1030 	ldr	r1, [pc, #48]	; 817c <kmain+0x54>
    8148:	e3a02b01 	mov	r2, #1024	; 0x400
    814c:	eb0000aa 	bl	83fc <init_ctx>
    8150:	e59f3028 	ldr	r3, [pc, #40]	; 8180 <kmain+0x58>
    8154:	e59f2028 	ldr	r2, [pc, #40]	; 8184 <kmain+0x5c>
    8158:	e5832000 	str	r2, [r3]
    815c:	e59f000c 	ldr	r0, [pc, #12]	; 8170 <kmain+0x48>
    8160:	eb0000b7 	bl	8444 <switch_to>
    8164:	e3a03000 	mov	r3, #0
    8168:	e1a00003 	mov	r0, r3
    816c:	e8bd8008 	pop	{r3, pc}
    8170:	000084ac 	andeq	r8, r0, ip, lsr #9
    8174:	000080d0 	ldrdeq	r8, [r0], -r0
    8178:	000084c0 	andeq	r8, r0, r0, asr #9
    817c:	000080fc 	strdeq	r8, [r0], -ip
    8180:	000084bc 			; <UNDEFINED> instruction: 0x000084bc
    8184:	000084b4 			; <UNDEFINED> instruction: 0x000084b4

00008188 <phyAlloc_alloc>:
    8188:	e92d0030 	push	{r4, r5}
    818c:	e24dd008 	sub	sp, sp, #8
    8190:	e58d0004 	str	r0, [sp, #4]
    8194:	e59f3094 	ldr	r3, [pc, #148]	; 8230 <phyAlloc_alloc+0xa8>
    8198:	e5934000 	ldr	r4, [r3]
    819c:	e59f508c 	ldr	r5, [pc, #140]	; 8230 <phyAlloc_alloc+0xa8>
    81a0:	ea000001 	b	81ac <phyAlloc_alloc+0x24>
    81a4:	e1a05004 	mov	r5, r4
    81a8:	e5944000 	ldr	r4, [r4]
    81ac:	e3540000 	cmp	r4, #0
    81b0:	0a000003 	beq	81c4 <phyAlloc_alloc+0x3c>
    81b4:	e5942004 	ldr	r2, [r4, #4]
    81b8:	e59d3004 	ldr	r3, [sp, #4]
    81bc:	e1520003 	cmp	r2, r3
    81c0:	3afffff7 	bcc	81a4 <phyAlloc_alloc+0x1c>
    81c4:	e3540000 	cmp	r4, #0
    81c8:	1a000011 	bne	8214 <phyAlloc_alloc+0x8c>
    81cc:	e59f3060 	ldr	r3, [pc, #96]	; 8234 <phyAlloc_alloc+0xac>
    81d0:	e5934000 	ldr	r4, [r3]
    81d4:	e59f3058 	ldr	r3, [pc, #88]	; 8234 <phyAlloc_alloc+0xac>
    81d8:	e5932000 	ldr	r2, [r3]
    81dc:	e59d3004 	ldr	r3, [sp, #4]
    81e0:	e2833003 	add	r3, r3, #3
    81e4:	e3c33003 	bic	r3, r3, #3
    81e8:	e0822003 	add	r2, r2, r3
    81ec:	e59f3040 	ldr	r3, [pc, #64]	; 8234 <phyAlloc_alloc+0xac>
    81f0:	e5832000 	str	r2, [r3]
    81f4:	e59f3038 	ldr	r3, [pc, #56]	; 8234 <phyAlloc_alloc+0xac>
    81f8:	e5932000 	ldr	r2, [r3]
    81fc:	e59f3034 	ldr	r3, [pc, #52]	; 8238 <phyAlloc_alloc+0xb0>
    8200:	e5933000 	ldr	r3, [r3]
    8204:	e1520003 	cmp	r2, r3
    8208:	9a000003 	bls	821c <phyAlloc_alloc+0x94>
    820c:	e3a03000 	mov	r3, #0
    8210:	ea000002 	b	8220 <phyAlloc_alloc+0x98>
    8214:	e5943000 	ldr	r3, [r4]
    8218:	e5853000 	str	r3, [r5]
    821c:	e1a03004 	mov	r3, r4
    8220:	e1a00003 	mov	r0, r3
    8224:	e28dd008 	add	sp, sp, #8
    8228:	e8bd0030 	pop	{r4, r5}
    822c:	e12fff1e 	bx	lr
    8230:	000084a0 	andeq	r8, r0, r0, lsr #9
    8234:	000084a4 	andeq	r8, r0, r4, lsr #9
    8238:	000084a8 	andeq	r8, r0, r8, lsr #9

0000823c <phyAlloc_free>:
    823c:	e52d4004 	push	{r4}		; (str r4, [sp, #-4]!)
    8240:	e24dd00c 	sub	sp, sp, #12
    8244:	e58d0004 	str	r0, [sp, #4]
    8248:	e58d1000 	str	r1, [sp]
    824c:	e59d4004 	ldr	r4, [sp, #4]
    8250:	e59d3000 	ldr	r3, [sp]
    8254:	e2833003 	add	r3, r3, #3
    8258:	e3c33003 	bic	r3, r3, #3
    825c:	e5843004 	str	r3, [r4, #4]
    8260:	e59f3018 	ldr	r3, [pc, #24]	; 8280 <phyAlloc_free+0x44>
    8264:	e5933000 	ldr	r3, [r3]
    8268:	e5843000 	str	r3, [r4]
    826c:	e59f300c 	ldr	r3, [pc, #12]	; 8280 <phyAlloc_free+0x44>
    8270:	e5834000 	str	r4, [r3]
    8274:	e28dd00c 	add	sp, sp, #12
    8278:	e8bd0010 	pop	{r4}
    827c:	e12fff1e 	bx	lr
    8280:	000084a0 	andeq	r8, r0, r0, lsr #9

00008284 <phyAlloc_init>:
    8284:	e24dd008 	sub	sp, sp, #8
    8288:	e58d0004 	str	r0, [sp, #4]
    828c:	e58d1000 	str	r1, [sp]
    8290:	e59f3020 	ldr	r3, [pc, #32]	; 82b8 <phyAlloc_init+0x34>
    8294:	e59d2004 	ldr	r2, [sp, #4]
    8298:	e5832000 	str	r2, [r3]
    829c:	e59d2004 	ldr	r2, [sp, #4]
    82a0:	e59d3000 	ldr	r3, [sp]
    82a4:	e0822003 	add	r2, r2, r3
    82a8:	e59f300c 	ldr	r3, [pc, #12]	; 82bc <phyAlloc_init+0x38>
    82ac:	e5832000 	str	r2, [r3]
    82b0:	e28dd008 	add	sp, sp, #8
    82b4:	e12fff1e 	bx	lr
    82b8:	000084a4 	andeq	r8, r0, r4, lsr #9
    82bc:	000084a8 	andeq	r8, r0, r8, lsr #9

000082c0 <set_tick_and_enable_timer>:
    82c0:	e52de004 	push	{lr}		; (str lr, [sp, #-4]!)
    82c4:	e24dd00c 	sub	sp, sp, #12
    82c8:	e59f0030 	ldr	r0, [pc, #48]	; 8300 <set_tick_and_enable_timer+0x40>
    82cc:	ebffff78 	bl	80b4 <GET32>
    82d0:	e58d0004 	str	r0, [sp, #4]
    82d4:	e59d3004 	ldr	r3, [sp, #4]
    82d8:	e2833702 	add	r3, r3, #524288	; 0x80000
    82dc:	e58d3004 	str	r3, [sp, #4]
    82e0:	e59f001c 	ldr	r0, [pc, #28]	; 8304 <set_tick_and_enable_timer+0x44>
    82e4:	e59d1004 	ldr	r1, [sp, #4]
    82e8:	ebffff6b 	bl	809c <PUT32>
    82ec:	e59f0014 	ldr	r0, [pc, #20]	; 8308 <set_tick_and_enable_timer+0x48>
    82f0:	e3a01002 	mov	r1, #2
    82f4:	ebffff68 	bl	809c <PUT32>
    82f8:	e28dd00c 	add	sp, sp, #12
    82fc:	e8bd8000 	pop	{pc}
    8300:	20003004 	andcs	r3, r0, r4
    8304:	20003010 	andcs	r3, r0, r0, lsl r0
    8308:	20003000 	andcs	r3, r0, r0

0000830c <led_off>:
    830c:	e92d4008 	push	{r3, lr}
    8310:	e59f0008 	ldr	r0, [pc, #8]	; 8320 <led_off+0x14>
    8314:	e3a01801 	mov	r1, #65536	; 0x10000
    8318:	ebffff5f 	bl	809c <PUT32>
    831c:	e8bd8008 	pop	{r3, pc}
    8320:	2020001c 	eorcs	r0, r0, ip, lsl r0

00008324 <led_on>:
    8324:	e92d4008 	push	{r3, lr}
    8328:	e59f0008 	ldr	r0, [pc, #8]	; 8338 <led_on+0x14>
    832c:	e3a01801 	mov	r1, #65536	; 0x10000
    8330:	ebffff59 	bl	809c <PUT32>
    8334:	e8bd8008 	pop	{r3, pc}
    8338:	20200028 	eorcs	r0, r0, r8, lsr #32

0000833c <init_hw>:
    833c:	e52de004 	push	{lr}		; (str lr, [sp, #-4]!)
    8340:	e24dd00c 	sub	sp, sp, #12
    8344:	e59f0098 	ldr	r0, [pc, #152]	; 83e4 <init_hw+0xa8>
    8348:	ebffff59 	bl	80b4 <GET32>
    834c:	e58d0004 	str	r0, [sp, #4]
    8350:	e59d3004 	ldr	r3, [sp, #4]
    8354:	e3c33707 	bic	r3, r3, #1835008	; 0x1c0000
    8358:	e58d3004 	str	r3, [sp, #4]
    835c:	e59d3004 	ldr	r3, [sp, #4]
    8360:	e3833701 	orr	r3, r3, #262144	; 0x40000
    8364:	e58d3004 	str	r3, [sp, #4]
    8368:	e59f0074 	ldr	r0, [pc, #116]	; 83e4 <init_hw+0xa8>
    836c:	e59d1004 	ldr	r1, [sp, #4]
    8370:	ebffff49 	bl	809c <PUT32>
    8374:	e59f006c 	ldr	r0, [pc, #108]	; 83e8 <init_hw+0xac>
    8378:	e3a01801 	mov	r1, #65536	; 0x10000
    837c:	ebffff46 	bl	809c <PUT32>
    8380:	e59f0064 	ldr	r0, [pc, #100]	; 83ec <init_hw+0xb0>
    8384:	ebffff4a 	bl	80b4 <GET32>
    8388:	e58d0000 	str	r0, [sp]
    838c:	e59d3000 	ldr	r3, [sp]
    8390:	e2833702 	add	r3, r3, #524288	; 0x80000
    8394:	e58d3000 	str	r3, [sp]
    8398:	e59f0050 	ldr	r0, [pc, #80]	; 83f0 <init_hw+0xb4>
    839c:	e59d1000 	ldr	r1, [sp]
    83a0:	ebffff3d 	bl	809c <PUT32>
    83a4:	e59f0048 	ldr	r0, [pc, #72]	; 83f4 <init_hw+0xb8>
    83a8:	e3a01002 	mov	r1, #2
    83ac:	ebffff3a 	bl	809c <PUT32>
    83b0:	e59f0040 	ldr	r0, [pc, #64]	; 83f8 <init_hw+0xbc>
    83b4:	e3a01002 	mov	r1, #2
    83b8:	ebffff37 	bl	809c <PUT32>
    83bc:	e92d0001 	push	{r0}
    83c0:	e10f0000 	mrs	r0, CPSR
    83c4:	e3800080 	orr	r0, r0, #128	; 0x80
    83c8:	e121f000 	msr	CPSR_c, r0
    83cc:	e8bd0001 	pop	{r0}
    83d0:	e3a00805 	mov	r0, #327680	; 0x50000
    83d4:	e3a01a32 	mov	r1, #204800	; 0x32000
    83d8:	ebffffa9 	bl	8284 <phyAlloc_init>
    83dc:	e28dd00c 	add	sp, sp, #12
    83e0:	e8bd8000 	pop	{pc}
    83e4:	20200004 	eorcs	r0, r0, r4
    83e8:	2020001c 	eorcs	r0, r0, ip, lsl r0
    83ec:	20003004 	andcs	r3, r0, r4
    83f0:	20003010 	andcs	r3, r0, r0, lsl r0
    83f4:	20003000 	andcs	r3, r0, r0
    83f8:	2000b210 	andcs	fp, r0, r0, lsl r2

000083fc <init_ctx>:
    83fc:	e52de004 	push	{lr}		; (str lr, [sp, #-4]!)
    8400:	e24dd014 	sub	sp, sp, #20
    8404:	e58d000c 	str	r0, [sp, #12]
    8408:	e58d1008 	str	r1, [sp, #8]
    840c:	e58d2004 	str	r2, [sp, #4]
    8410:	e59d2008 	ldr	r2, [sp, #8]
    8414:	e59d300c 	ldr	r3, [sp, #12]
    8418:	e5832004 	str	r2, [r3, #4]
    841c:	e59d0004 	ldr	r0, [sp, #4]
    8420:	ebffff58 	bl	8188 <phyAlloc_alloc>
    8424:	e1a03000 	mov	r3, r0
    8428:	e1a02003 	mov	r2, r3
    842c:	e59d3004 	ldr	r3, [sp, #4]
    8430:	e0822003 	add	r2, r2, r3
    8434:	e59d300c 	ldr	r3, [sp, #12]
    8438:	e5832000 	str	r2, [r3]
    843c:	e28dd014 	add	sp, sp, #20
    8440:	e8bd8000 	pop	{pc}

00008444 <switch_to>:
    8444:	e1a02000 	mov	r2, r0
    8448:	e92d1fff 	push	{r0, r1, r2, r3, r4, r5, r6, r7, r8, r9, sl, fp, ip}
    844c:	e59f3048 	ldr	r3, [pc, #72]	; 849c <switch_to+0x58>
    8450:	e5933000 	ldr	r3, [r3]
    8454:	e1a0100d 	mov	r1, sp
    8458:	e5831000 	str	r1, [r3]
    845c:	e59f3038 	ldr	r3, [pc, #56]	; 849c <switch_to+0x58>
    8460:	e5933000 	ldr	r3, [r3]
    8464:	e1a0100e 	mov	r1, lr
    8468:	e5831004 	str	r1, [r3, #4]
    846c:	e59f3028 	ldr	r3, [pc, #40]	; 849c <switch_to+0x58>
    8470:	e5832000 	str	r2, [r3]
    8474:	e59f3020 	ldr	r3, [pc, #32]	; 849c <switch_to+0x58>
    8478:	e5933000 	ldr	r3, [r3]
    847c:	e5933000 	ldr	r3, [r3]
    8480:	e1a0d003 	mov	sp, r3
    8484:	e59f3010 	ldr	r3, [pc, #16]	; 849c <switch_to+0x58>
    8488:	e5933000 	ldr	r3, [r3]
    848c:	e5933004 	ldr	r3, [r3, #4]
    8490:	e1a0e003 	mov	lr, r3
    8494:	e8bd1fff 	pop	{r0, r1, r2, r3, r4, r5, r6, r7, r8, r9, sl, fp, ip}
    8498:	e12fff1e 	bx	lr
    849c:	000084bc 			; <UNDEFINED> instruction: 0x000084bc

Disassembly of section .bss:

000084a0 <freelist>:
    84a0:	00000000 	andeq	r0, r0, r0

000084a4 <top>:
    84a4:	00000000 	andeq	r0, r0, r0

000084a8 <heap_limit>:
    84a8:	00000000 	andeq	r0, r0, r0

000084ac <ctx_ping>:
	...

000084b4 <ctx_init>:
	...

000084bc <current_ctx>:
    84bc:	00000000 	andeq	r0, r0, r0

000084c0 <ctx_pong>:
	...

Disassembly of section .ARM.attributes:

00000000 <.ARM.attributes>:
   0:	00003141 	andeq	r3, r0, r1, asr #2
   4:	61656100 	cmnvs	r5, r0, lsl #2
   8:	01006962 	tsteq	r0, r2, ror #18
   c:	00000027 	andeq	r0, r0, r7, lsr #32
  10:	005a3605 	subseq	r3, sl, r5, lsl #12
  14:	01080706 	tsteq	r8, r6, lsl #14
  18:	020a0109 	andeq	r0, sl, #1073741826	; 0x40000002
  1c:	01140412 	tsteq	r4, r2, lsl r4
  20:	03170115 	tsteq	r7, #1073741829	; 0x40000005
  24:	011a0118 	tsteq	sl, r8, lsl r1
  28:	011c031b 	tsteq	ip, fp, lsl r3
  2c:	012c0122 	teqeq	ip, r2, lsr #2
  30:	Address 0x0000000000000030 is out of bounds.


Disassembly of section .comment:

00000000 <.comment>:
   0:	3a434347 	bcc	10d0d24 <__bss_end+0x10c885c>
   4:	4e472820 	cdpmi	8, 4, cr2, cr7, cr0, {1}
   8:	34202955 	strtcc	r2, [r0], #-2389	; 0x955
   c:	312e372e 	teqcc	lr, lr, lsr #14
	...

Disassembly of section .debug_line:

00000000 <.debug_line>:
   0:	00000061 	andeq	r0, r0, r1, rrx
   4:	00200002 	eoreq	r0, r0, r2
   8:	01020000 	mrseq	r0, (UNDEF: 2)
   c:	000d0efb 	strdeq	r0, [sp], -fp
  10:	01010101 	tsteq	r1, r1, lsl #2
  14:	01000000 	mrseq	r0, (UNDEF: 0)
  18:	00010000 	andeq	r0, r1, r0
  1c:	74636576 	strbtvc	r6, [r3], #-1398	; 0x576
  20:	2e73726f 	cdpcs	2, 7, cr7, cr3, cr15, {3}
  24:	00000073 	andeq	r0, r0, r3, ror r0
  28:	05000000 	streq	r0, [r0, #-0]
  2c:	00800002 	addeq	r0, r0, r2
  30:	2f2f1900 	svccs	0x002f1900
  34:	2f2f2f2f 	svccs	0x002f2f2f
  38:	080b032f 	stmdaeq	fp, {r0, r1, r2, r3, r5, r8, r9}
  3c:	2f2f2f20 	svccs	0x002f2f20
  40:	2f322f2f 	svccs	0x00322f2f
  44:	2f2f322f 	svccs	0x002f322f
  48:	302f2f31 	eorcc	r2, pc, r1, lsr pc	; <UNPREDICTABLE>
  4c:	2f2f2f30 	svccs	0x002f2f30
  50:	322f2f2f 	eorcc	r2, pc, #188	; 0xbc
  54:	322f322f 	eorcc	r3, pc, #-268435454	; 0xf0000002
  58:	322f322f 	eorcc	r3, pc, #-268435454	; 0xf0000002
  5c:	3032322f 	eorscc	r3, r2, pc, lsr #4
  60:	01000202 	tsteq	r0, r2, lsl #4
  64:	00006601 	andeq	r6, r0, r1, lsl #12
  68:	2a000200 	bcs	870 <_start-0x7790>
  6c:	02000000 	andeq	r0, r0, #0
  70:	0d0efb01 	vstreq	d15, [lr, #-4]
  74:	01010100 	mrseq	r0, (UNDEF: 17)
  78:	00000001 	andeq	r0, r0, r1
  7c:	01000001 	tsteq	r0, r1
  80:	72656b00 	rsbvc	r6, r5, #0
  84:	2e6c656e 	cdpcs	5, 6, cr6, cr12, cr14, {3}
  88:	00000063 	andeq	r0, r0, r3, rrx
  8c:	68637300 	stmdavs	r3!, {r8, r9, ip, sp, lr}^
  90:	682e6465 	stmdavs	lr!, {r0, r2, r5, r6, sl, sp, lr}
  94:	00000000 	andeq	r0, r0, r0
  98:	02050000 	andeq	r0, r5, #0
  9c:	000080d0 	ldrdeq	r8, [r0], -r0
  a0:	02004c16 	andeq	r4, r0, #5632	; 0x1600
  a4:	004c0104 	subeq	r0, ip, r4, lsl #2
  a8:	67010402 	strvs	r0, [r1, -r2, lsl #8]
  ac:	01040200 	mrseq	r0, R12_usr
  b0:	004c4c4b 	subeq	r4, ip, fp, asr #24
  b4:	4c010402 	cfstrsmi	mvf0, [r1], {2}
  b8:	01040200 	mrseq	r0, R12_usr
  bc:	04020067 	streq	r0, [r2], #-103	; 0x67
  c0:	2f4f4b01 	svccs	0x004f4b01
  c4:	6783832f 	strvs	r8, [r3, pc, lsr #6]
  c8:	10022f4c 	andne	r2, r2, ip, asr #30
  cc:	59010100 	stmdbpl	r1, {r8}
  d0:	02000000 	andeq	r0, r0, #0
  d4:	00002100 	andeq	r2, r0, r0, lsl #2
  d8:	fb010200 	blx	408e2 <__bss_end+0x3841a>
  dc:	01000d0e 	tsteq	r0, lr, lsl #26
  e0:	00010101 	andeq	r0, r1, r1, lsl #2
  e4:	00010000 	andeq	r0, r1, r0
  e8:	70000100 	andvc	r0, r0, r0, lsl #2
  ec:	6c417968 	mcrrvs	9, 6, r7, r1, cr8
  f0:	2e636f6c 	cdpcs	15, 6, cr6, cr3, cr12, {3}
  f4:	00000063 	andeq	r0, r0, r3, rrx
  f8:	05000000 	streq	r0, [r0, #-0]
  fc:	00818802 	addeq	r8, r1, r2, lsl #16
 100:	010c0300 	mrseq	r0, LR_mon
 104:	2f2f4c67 	svccs	0x002f4c67
 108:	0402002f 	streq	r0, [r2], #-47	; 0x2f
 10c:	02002c01 	andeq	r2, r0, #256	; 0x100
 110:	4a060204 	bmi	180928 <__bss_end+0x178460>
 114:	4b4b8606 	blmi	12e1934 <__bss_end+0x12d946c>
 118:	4c4cbbf4 	mcrrmi	11, 15, fp, ip, cr4
 11c:	3083da2f 	addcc	sp, r3, pc, lsr #20
 120:	864b6783 	strbhi	r6, [fp], -r3, lsl #15
 124:	029f6767 	addseq	r6, pc, #27000832	; 0x19c0000
 128:	01010008 	tsteq	r1, r8
 12c:	0000004b 	andeq	r0, r0, fp, asr #32
 130:	001b0002 	andseq	r0, fp, r2
 134:	01020000 	mrseq	r0, (UNDEF: 2)
 138:	000d0efb 	strdeq	r0, [sp], -fp
 13c:	01010101 	tsteq	r1, r1, lsl #2
 140:	01000000 	mrseq	r0, (UNDEF: 0)
 144:	00010000 	andeq	r0, r1, r0
 148:	632e7768 	teqvs	lr, #27262976	; 0x1a00000
 14c:	00000000 	andeq	r0, r0, r0
 150:	02050000 	andeq	r0, r5, #0
 154:	000082c0 	andeq	r8, r0, r0, asr #5
 158:	4b011c03 	blmi	4716c <__bss_end+0x3eca4>
 15c:	67686767 	strbvs	r6, [r8, -r7, ror #14]!
 160:	2f9e0903 	svccs	0x009e0903
 164:	672f4e67 	strvs	r4, [pc, -r7, ror #28]!
 168:	67674f51 			; <UNDEFINED> instruction: 0x67674f51
 16c:	67696967 	strbvs	r6, [r9, -r7, ror #18]!
 170:	68696a67 	stmdavs	r9!, {r0, r1, r2, r5, r6, r9, fp, sp, lr}^
 174:	100267a0 	andne	r6, r2, r0, lsr #15
 178:	48010100 	stmdami	r1, {r8}
 17c:	02000000 	andeq	r0, r0, #0
 180:	00002900 	andeq	r2, r0, r0, lsl #18
 184:	fb010200 	blx	4098e <__bss_end+0x384c6>
 188:	01000d0e 	tsteq	r0, lr, lsl #26
 18c:	00010101 	andeq	r0, r1, r1, lsl #2
 190:	00010000 	andeq	r0, r1, r0
 194:	73000100 	movwvc	r0, #256	; 0x100
 198:	64656863 	strbtvs	r6, [r5], #-2147	; 0x863
 19c:	0000632e 	andeq	r6, r0, lr, lsr #6
 1a0:	63730000 	cmnvs	r3, #0
 1a4:	2e646568 	cdpcs	5, 6, cr6, cr4, cr8, {3}
 1a8:	00000068 	andeq	r0, r0, r8, rrx
 1ac:	05000000 	streq	r0, [r0, #-0]
 1b0:	0083fc02 	addeq	pc, r3, r2, lsl #24
 1b4:	67a01600 	strvs	r1, [r0, r0, lsl #12]!
 1b8:	2f324ef4 	svccs	0x00324ef4
 1bc:	834e8583 	movthi	r8, #58755	; 0xe583
 1c0:	04023183 	streq	r3, [r2], #-387	; 0x183
 1c4:	Address 0x00000000000001c4 is out of bounds.


Disassembly of section .debug_info:

00000000 <.debug_info>:
   0:	0000005b 	andeq	r0, r0, fp, asr r0
   4:	00000002 	andeq	r0, r0, r2
   8:	01040000 	mrseq	r0, (UNDEF: 4)
   c:	00000000 	andeq	r0, r0, r0
  10:	00008000 	andeq	r8, r0, r0
  14:	000080d0 	ldrdeq	r8, [r0], -r0
  18:	74636576 	strbtvc	r6, [r3], #-1398	; 0x576
  1c:	2e73726f 	cdpcs	2, 7, cr7, cr3, cr15, {3}
  20:	682f0073 	stmdavs	pc!, {r0, r1, r4, r5, r6}	; <UNPREDICTABLE>
  24:	2f656d6f 	svccs	0x00656d6f
  28:	6e65626d 	cdpvs	2, 6, cr6, cr5, cr13, {3}
  2c:	6b616863 	blvs	185a1c0 <__bss_end+0x1851cf8>
  30:	542f6f72 	strtpl	r6, [pc], #-3954	; 38 <_start-0x7fc8>
  34:	c36ca9c3 	cmngt	ip, #3194880	; 0x30c000
  38:	616863a9 	cmnvs	r8, r9, lsr #7
  3c:	6d656772 	stclvs	7, cr6, [r5, #-456]!	; 0xfffffe38
  40:	73746e65 	cmnvc	r4, #1616	; 0x650
  44:	70736f2f 	rsbsvc	r6, r3, pc, lsr #30
  48:	732d6569 	teqvc	sp, #440401920	; 0x1a400000
  4c:	74726174 	ldrbtvc	r6, [r2], #-372	; 0x174
  50:	554e4700 	strbpl	r4, [lr, #-1792]	; 0x700
  54:	20534120 	subscs	r4, r3, r0, lsr #2
  58:	32322e32 	eorscc	r2, r2, #800	; 0x320
  5c:	23800100 	orrcs	r0, r0, #0
  60:	02000001 	andeq	r0, r0, #1
  64:	00001400 	andeq	r1, r0, r0, lsl #8
  68:	11010400 	tstne	r1, r0, lsl #8
  6c:	01000000 	mrseq	r0, (UNDEF: 0)
  70:	00000023 	andeq	r0, r0, r3, lsr #32
  74:	00000041 	andeq	r0, r0, r1, asr #32
  78:	000080d0 	ldrdeq	r8, [r0], -r0
  7c:	00008188 	andeq	r8, r0, r8, lsl #3
  80:	00000065 	andeq	r0, r0, r5, rrx
  84:	00007002 	andeq	r7, r0, r2
  88:	05020800 	streq	r0, [r2, #-2048]	; 0x800
  8c:	0000004c 	andeq	r0, r0, ip, asr #32
  90:	00707303 	rsbseq	r7, r0, r3, lsl #6
  94:	004c0702 	subeq	r0, ip, r2, lsl #14
  98:	23020000 	movwcs	r0, #8192	; 0x2000
  9c:	726c0300 	rsbvc	r0, ip, #0
  a0:	4c080200 	sfmmi	f0, 4, [r8], {-0}
  a4:	02000000 	andeq	r0, r0, #0
  a8:	04000423 	streq	r0, [r0], #-1059	; 0x423
  ac:	01220704 	teqeq	r2, r4, lsl #14
  b0:	01050000 	mrseq	r0, (UNDEF: 5)
  b4:	00000004 	andeq	r0, r0, r4
  b8:	80d00501 	sbcshi	r0, r0, r1, lsl #10
  bc:	80fc0000 	rscshi	r0, ip, r0
  c0:	00000000 	andeq	r0, r0, r0
  c4:	7b010000 	blvc	400cc <__bss_end+0x37c04>
  c8:	06000000 	streq	r0, [r0], -r0
  cc:	00747063 	rsbseq	r7, r4, r3, rrx
  d0:	007b0701 	rsbseq	r0, fp, r1, lsl #14
  d4:	91020000 	mrsls	r0, (UNDEF: 2)
  d8:	04070074 	streq	r0, [r7], #-116	; 0x74
  dc:	746e6905 	strbtvc	r6, [lr], #-2309	; 0x905
  e0:	7a010500 	bvc	414e8 <__bss_end+0x39020>
  e4:	01000000 	mrseq	r0, (UNDEF: 0)
  e8:	0080fc0d 	addeq	pc, r0, sp, lsl #24
  ec:	00812800 	addeq	r2, r1, r0, lsl #16
  f0:	00002c00 	andeq	r2, r0, r0, lsl #24
  f4:	00aa0100 	adceq	r0, sl, r0, lsl #2
  f8:	63060000 	movwvs	r0, #24576	; 0x6000
  fc:	01007470 	tsteq	r0, r0, ror r4
 100:	00007b0f 	andeq	r7, r0, pc, lsl #22
 104:	74910200 	ldrvc	r0, [r1], #512	; 0x200
 108:	1d010800 	stcne	8, cr0, [r1, #-0]
 10c:	01000000 	mrseq	r0, (UNDEF: 0)
 110:	007b0118 	rsbseq	r0, fp, r8, lsl r1
 114:	81280000 	teqhi	r8, r0
 118:	81880000 	orrhi	r0, r8, r0
 11c:	00580000 	subseq	r0, r8, r0
 120:	d8010000 	stmdale	r1, {}	; <UNPREDICTABLE>
 124:	09000000 	stmdbeq	r0, {}	; <UNPREDICTABLE>
 128:	00000901 	andeq	r0, r0, r1, lsl #18
 12c:	7b190100 	blvc	640534 <__bss_end+0x63806c>
 130:	01000000 	mrseq	r0, (UNDEF: 0)
 134:	0b00000a 	bleq	164 <_start-0x7e9c>
 138:	00000035 	andeq	r0, r0, r5, lsr r0
 13c:	00ea0b02 	rsceq	r0, sl, r2, lsl #22
 140:	05010000 	streq	r0, [r1, #-0]
 144:	0084bc03 	addeq	fp, r4, r3, lsl #24
 148:	25040c00 	strcs	r0, [r4, #-3072]	; 0xc00
 14c:	0b000000 	bleq	154 <_start-0x7eac>
 150:	00000000 	andeq	r0, r0, r0
 154:	00250201 	eoreq	r0, r5, r1, lsl #4
 158:	05010000 	streq	r0, [r1, #-0]
 15c:	0084ac03 	addeq	sl, r4, r3, lsl #24
 160:	00760b00 	rsbseq	r0, r6, r0, lsl #22
 164:	03010000 	movweq	r0, #4096	; 0x1000
 168:	00000025 	andeq	r0, r0, r5, lsr #32
 16c:	c0030501 	andgt	r0, r3, r1, lsl #10
 170:	0b000084 	bleq	388 <_start-0x7c78>
 174:	0000002c 	andeq	r0, r0, ip, lsr #32
 178:	00250401 	eoreq	r0, r5, r1, lsl #8
 17c:	05010000 	streq	r0, [r1, #-0]
 180:	0084b403 	addeq	fp, r4, r3, lsl #8
 184:	015e0000 	cmpeq	lr, r0
 188:	00020000 	andeq	r0, r2, r0
 18c:	000000cf 	andeq	r0, r0, pc, asr #1
 190:	00110104 	andseq	r0, r1, r4, lsl #2
 194:	7f010000 	svcvc	0x00010000
 198:	41000000 	mrsmi	r0, (UNDEF: 0)
 19c:	88000000 	stmdahi	r0, {}	; <UNPREDICTABLE>
 1a0:	c0000081 	andgt	r0, r0, r1, lsl #1
 1a4:	cf000082 	svcgt	0x00000082
 1a8:	02000000 	andeq	r0, r0, #0
 1ac:	08006c66 	stmdaeq	r0, {r1, r2, r5, r6, sl, fp, sp, lr}
 1b0:	004d0301 	subeq	r0, sp, r1, lsl #6
 1b4:	c0030000 	andgt	r0, r3, r0
 1b8:	01000000 	mrseq	r0, (UNDEF: 0)
 1bc:	00004d04 	andeq	r4, r0, r4, lsl #26
 1c0:	00230200 	eoreq	r0, r3, r0, lsl #4
 1c4:	00014403 	andeq	r4, r1, r3, lsl #8
 1c8:	53050100 	movwpl	r0, #20736	; 0x5100
 1cc:	02000000 	andeq	r0, r0, #0
 1d0:	04000423 	streq	r0, [r0], #-1059	; 0x423
 1d4:	00002504 	andeq	r2, r0, r4, lsl #10
 1d8:	07040500 	streq	r0, [r4, -r0, lsl #10]
 1dc:	00000122 	andeq	r0, r0, r2, lsr #2
 1e0:	00980106 	addseq	r0, r8, r6, lsl #2
 1e4:	0c010000 	stceq	0, cr0, [r1], {-0}
 1e8:	00009f01 	andeq	r9, r0, r1, lsl #30
 1ec:	00818800 	addeq	r8, r1, r0, lsl #16
 1f0:	00823c00 	addeq	r3, r2, r0, lsl #24
 1f4:	00007800 	andeq	r7, r0, r0, lsl #16
 1f8:	009f0100 	addseq	r0, pc, r0, lsl #2
 1fc:	44070000 	strmi	r0, [r7], #-0
 200:	01000001 	tsteq	r0, r1
 204:	0000530c 	andeq	r5, r0, ip, lsl #6
 208:	74910200 	ldrvc	r0, [r1], #512	; 0x200
 20c:	01006608 	tsteq	r0, r8, lsl #12
 210:	00004d0e 	andeq	r4, r0, lr, lsl #26
 214:	09540100 	ldmdbeq	r4, {r8}^
 218:	0000008a 	andeq	r0, r0, sl, lsl #1
 21c:	00a10e01 	adceq	r0, r1, r1, lsl #28
 220:	55010000 	strpl	r0, [r1, #-0]
 224:	04040a00 	streq	r0, [r4], #-2560	; 0xa00
 228:	00004d04 	andeq	r4, r0, r4, lsl #26
 22c:	a7010b00 	strge	r0, [r1, -r0, lsl #22]
 230:	01000000 	mrseq	r0, (UNDEF: 0)
 234:	823c0122 	eorshi	r0, ip, #-2147483640	; 0x80000008
 238:	82840000 	addhi	r0, r4, #0
 23c:	00a40000 	adceq	r0, r4, r0
 240:	e9010000 	stmdb	r1, {}	; <UNPREDICTABLE>
 244:	0c000000 	stceq	0, cr0, [r0], {-0}
 248:	00727470 	rsbseq	r7, r2, r0, ror r4
 24c:	009f2201 	addseq	r2, pc, r1, lsl #4
 250:	91020000 	mrsls	r0, (UNDEF: 2)
 254:	01440774 	hvceq	16500	; 0x4074
 258:	22010000 	andcs	r0, r1, #0
 25c:	00000053 	andeq	r0, r0, r3, asr r0
 260:	08709102 	ldmdaeq	r0!, {r1, r8, ip, pc}^
 264:	24010066 	strcs	r0, [r1], #-102	; 0x66
 268:	0000004d 	andeq	r0, r0, sp, asr #32
 26c:	0b005401 	bleq	15278 <__bss_end+0xcdb0>
 270:	0000c501 	andeq	ip, r0, r1, lsl #10
 274:	012c0100 	teqeq	ip, r0, lsl #2
 278:	00008284 	andeq	r8, r0, r4, lsl #5
 27c:	000082c0 	andeq	r8, r0, r0, asr #5
 280:	000000d0 	ldrdeq	r0, [r0], -r0	; <UNPREDICTABLE>
 284:	00012001 	andeq	r2, r1, r1
 288:	00b50700 	adcseq	r0, r5, r0, lsl #14
 28c:	2c010000 	stccs	0, cr0, [r1], {-0}
 290:	00000120 	andeq	r0, r0, r0, lsr #2
 294:	077c9102 	ldrbeq	r9, [ip, -r2, lsl #2]!
 298:	000000de 	ldrdeq	r0, [r0], -lr
 29c:	00532c01 	subseq	r2, r3, r1, lsl #24
 2a0:	91020000 	mrsls	r0, (UNDEF: 2)
 2a4:	04040078 	streq	r0, [r4], #-120	; 0x78
 2a8:	00000126 	andeq	r0, r0, r6, lsr #2
 2ac:	f1080105 	cps	#5
 2b0:	08000000 	stmdaeq	r0, {}	; <UNPREDICTABLE>
 2b4:	00706f74 	rsbseq	r6, r0, r4, ror pc
 2b8:	01200801 	teqeq	r0, r1, lsl #16
 2bc:	03050000 	movweq	r0, #20480	; 0x5000
 2c0:	000084a4 	andeq	r8, r0, r4, lsr #9
 2c4:	0000d309 	andeq	sp, r0, r9, lsl #6
 2c8:	20090100 	andcs	r0, r9, r0, lsl #2
 2cc:	05000001 	streq	r0, [r0, #-1]
 2d0:	0084a803 	addeq	sl, r4, r3, lsl #16
 2d4:	008f0d00 	addeq	r0, pc, r0, lsl #26
 2d8:	06010000 	streq	r0, [r1], -r0
 2dc:	0000004d 	andeq	r0, r0, sp, asr #32
 2e0:	a0030501 	andge	r0, r3, r1, lsl #10
 2e4:	00000084 	andeq	r0, r0, r4, lsl #1
 2e8:	000000b8 	strheq	r0, [r0], -r8
 2ec:	019f0002 	orrseq	r0, pc, r2
 2f0:	01040000 	mrseq	r0, (UNDEF: 4)
 2f4:	00000011 	andeq	r0, r0, r1, lsl r0
 2f8:	0000f601 	andeq	pc, r0, r1, lsl #12
 2fc:	00004100 	andeq	r4, r0, r0, lsl #2
 300:	0082c000 	addeq	ip, r2, r0
 304:	0083fc00 	addeq	pc, r3, r0, lsl #24
 308:	00012c00 	andeq	r2, r1, r0, lsl #24
 30c:	07020200 	streq	r0, [r2, -r0, lsl #4]
 310:	0000011c 	andeq	r0, r0, ip, lsl r1
 314:	22070402 	andcs	r0, r7, #33554432	; 0x2000000
 318:	02000001 	andeq	r0, r0, #1
 31c:	00e80801 	rsceq	r0, r8, r1, lsl #16
 320:	01030000 	mrseq	r0, (UNDEF: 3)
 324:	00000102 	andeq	r0, r0, r2, lsl #2
 328:	82c01c01 	sbchi	r1, r0, #256	; 0x100
 32c:	830c0000 	movwhi	r0, #49152	; 0xc000
 330:	00f00000 	rscseq	r0, r0, r0
 334:	61010000 	mrsvs	r0, (UNDEF: 1)
 338:	04000000 	streq	r0, [r0], #-0
 33c:	01007872 	tsteq	r0, r2, ror r8
 340:	00002c1e 	andeq	r2, r0, lr, lsl ip
 344:	74910200 	ldrvc	r0, [r1], #512	; 0x200
 348:	2f010500 	svccs	0x00010500
 34c:	01000001 	tsteq	r0, r1
 350:	00830c2b 	addeq	r0, r3, fp, lsr #24
 354:	00832400 	addeq	r2, r3, r0, lsl #8
 358:	00011c00 	andeq	r1, r1, r0, lsl #24
 35c:	01050100 	mrseq	r0, (UNDEF: 21)
 360:	000000fb 	strdeq	r0, [r0], -fp
 364:	83243101 	teqhi	r4, #1073741824	; 0x40000000
 368:	833c0000 	teqhi	ip, #0
 36c:	013c0000 	teqeq	ip, r0
 370:	06010000 	streq	r0, [r1], -r0
 374:	00000901 	andeq	r0, r0, r1, lsl #18
 378:	3c3a0100 	ldfccs	f0, [sl], #-0
 37c:	fc000083 	stc2	0, cr0, [r0], {131}	; 0x83
 380:	5c000083 	stcpl	0, cr0, [r0], {131}	; 0x83
 384:	01000001 	tsteq	r0, r1
 388:	00617204 	rsbeq	r7, r1, r4, lsl #4
 38c:	002c3c01 	eoreq	r3, ip, r1, lsl #24
 390:	91020000 	mrsls	r0, (UNDEF: 2)
 394:	78720474 	ldmdavc	r2!, {r2, r4, r5, r6, sl}^
 398:	2c3d0100 	ldfcss	f0, [sp], #-0
 39c:	02000000 	andeq	r0, r0, #0
 3a0:	00007091 	muleq	r0, r1, r0
 3a4:	000000fb 	strdeq	r0, [r0], -fp
 3a8:	02110002 	andseq	r0, r1, #2
 3ac:	01040000 	mrseq	r0, (UNDEF: 4)
 3b0:	00000011 	andeq	r0, r0, r1, lsl r0
 3b4:	00014901 	andeq	r4, r1, r1, lsl #18
 3b8:	00004100 	andeq	r4, r0, r0, lsl #2
 3bc:	0083fc00 	addeq	pc, r3, r0, lsl #24
 3c0:	0084a000 	addeq	sl, r4, r0
 3c4:	00017b00 	andeq	r7, r1, r0, lsl #22
 3c8:	01370200 	teqeq	r7, r0, lsl #4
 3cc:	03020000 	movweq	r0, #8192	; 0x2000
 3d0:	00000030 	andeq	r0, r0, r0, lsr r0
 3d4:	00360403 	eorseq	r0, r6, r3, lsl #8
 3d8:	01040000 	mrseq	r0, (UNDEF: 4)
 3dc:	00007005 	andeq	r7, r0, r5
 3e0:	05020800 	streq	r0, [r2, #-2048]	; 0x800
 3e4:	0000005f 	andeq	r0, r0, pc, asr r0
 3e8:	00707306 	rsbseq	r7, r0, r6, lsl #6
 3ec:	005f0702 	subseq	r0, pc, r2, lsl #14
 3f0:	23020000 	movwcs	r0, #8192	; 0x2000
 3f4:	726c0600 	rsbvc	r0, ip, #0
 3f8:	5f080200 	svcpl	0x00080200
 3fc:	02000000 	andeq	r0, r0, #0
 400:	07000423 	streq	r0, [r0, -r3, lsr #8]
 404:	01220704 	teqeq	r2, r4, lsl #14
 408:	01080000 	mrseq	r0, (UNDEF: 8)
 40c:	0000015b 	andeq	r0, r0, fp, asr r1
 410:	fc010501 	stc2	5, cr0, [r1], {1}
 414:	44000083 	strmi	r0, [r0], #-131	; 0x83
 418:	88000084 	stmdahi	r0, {r2, r7}
 41c:	01000001 	tsteq	r0, r1
 420:	000000b8 	strheq	r0, [r0], -r8
 424:	78746309 	ldmdavc	r4!, {r0, r3, r8, r9, sp, lr}^
 428:	b8050100 	stmdalt	r5, {r8}
 42c:	02000000 	andeq	r0, r0, #0
 430:	66097491 			; <UNDEFINED> instruction: 0x66097491
 434:	25050100 	strcs	r0, [r5, #-256]	; 0x100
 438:	02000000 	andeq	r0, r0, #0
 43c:	3e0a7091 	mcrcc	0, 0, r7, cr10, cr1, {4}
 440:	01000001 	tsteq	r0, r1
 444:	00005f05 	andeq	r5, r0, r5, lsl #30
 448:	6c910200 	lfmvs	f0, 4, [r1], {0}
 44c:	0098010b 	addseq	r0, r8, fp, lsl #2
 450:	08010000 	stmdaeq	r1, {}	; <UNPREDICTABLE>
 454:	000000be 	strheq	r0, [r0], -lr
 458:	00000c01 	andeq	r0, r0, r1, lsl #24
 45c:	00380403 	eorseq	r0, r8, r3, lsl #8
 460:	040d0000 	streq	r0, [sp], #-0
 464:	746e6905 	strbtvc	r6, [lr], #-2309	; 0x905
 468:	51010e00 	tstpl	r1, r0, lsl #28
 46c:	01000001 	tsteq	r0, r1
 470:	8444010d 	strbhi	r0, [r4], #-269	; 0x10d
 474:	84a00000 	strthi	r0, [r0], #0
 478:	7d020000 	stcvc	0, cr0, [r2, #-0]
 47c:	00ec0100 	rsceq	r0, ip, r0, lsl #2
 480:	63090000 	movwvs	r0, #36864	; 0x9000
 484:	01007874 	tsteq	r0, r4, ror r8
 488:	0000b80d 	andeq	fp, r0, sp, lsl #16
 48c:	00520100 	subseq	r0, r2, r0, lsl #2
 490:	0000350f 	andeq	r3, r0, pc, lsl #10
 494:	b80b0200 	stmdalt	fp, {r9}
 498:	01000000 	mrseq	r0, (UNDEF: 0)
 49c:	84bc0305 	ldrthi	r0, [ip], #773	; 0x305
 4a0:	Address 0x00000000000004a0 is out of bounds.


Disassembly of section .debug_abbrev:

00000000 <.debug_abbrev>:
   0:	10001101 	andne	r1, r0, r1, lsl #2
   4:	12011106 	andne	r1, r1, #-2147483647	; 0x80000001
   8:	1b080301 	blne	200c14 <__bss_end+0x1f874c>
   c:	13082508 	movwne	r2, #34056	; 0x8508
  10:	00000005 	andeq	r0, r0, r5
  14:	25011101 	strcs	r1, [r1, #-257]	; 0x101
  18:	030b130e 	movweq	r1, #45838	; 0xb30e
  1c:	110e1b0e 	tstne	lr, lr, lsl #22
  20:	10011201 	andne	r1, r1, r1, lsl #4
  24:	02000006 	andeq	r0, r0, #6
  28:	0e030113 	mcreq	1, 0, r0, cr3, cr3, {0}
  2c:	0b3a0b0b 	bleq	e82c60 <__bss_end+0xe7a798>
  30:	13010b3b 	movwne	r0, #6971	; 0x1b3b
  34:	0d030000 	stceq	0, cr0, [r3, #-0]
  38:	3a080300 	bcc	200c40 <__bss_end+0x1f8778>
  3c:	490b3b0b 	stmdbmi	fp, {r0, r1, r3, r8, r9, fp, ip, sp}
  40:	000a3813 	andeq	r3, sl, r3, lsl r8
  44:	00240400 	eoreq	r0, r4, r0, lsl #8
  48:	0b3e0b0b 	bleq	f82c7c <__bss_end+0xf7a7b4>
  4c:	00000e03 	andeq	r0, r0, r3, lsl #28
  50:	3f012e05 	svccc	0x00012e05
  54:	3a0e030c 	bcc	380c8c <__bss_end+0x3787c4>
  58:	110b3b0b 	tstne	fp, fp, lsl #22
  5c:	40011201 	andmi	r1, r1, r1, lsl #4
  60:	0c429606 	mcrreq	6, 0, r9, r2, cr6
  64:	00001301 	andeq	r1, r0, r1, lsl #6
  68:	03003406 	movweq	r3, #1030	; 0x406
  6c:	3b0b3a08 	blcc	2ce894 <__bss_end+0x2c63cc>
  70:	0213490b 	andseq	r4, r3, #180224	; 0x2c000
  74:	0700000a 	streq	r0, [r0, -sl]
  78:	0b0b0024 	bleq	2c0110 <__bss_end+0x2b7c48>
  7c:	08030b3e 	stmdaeq	r3, {r1, r2, r3, r4, r5, r8, r9, fp}
  80:	2e080000 	cdpcs	0, 0, cr0, cr8, cr0, {0}
  84:	030c3f01 	movweq	r3, #52993	; 0xcf01
  88:	3b0b3a0e 	blcc	2ce8c8 <__bss_end+0x2c6400>
  8c:	490c270b 	stmdbmi	ip, {r0, r1, r3, r8, r9, sl, sp}
  90:	12011113 	andne	r1, r1, #-1073741820	; 0xc0000004
  94:	96064001 	strls	r4, [r6], -r1
  98:	13010c42 	movwne	r0, #7234	; 0x1c42
  9c:	2e090000 	cdpcs	0, 0, cr0, cr9, cr0, {0}
  a0:	030c3f01 	movweq	r3, #52993	; 0xcf01
  a4:	3b0b3a0e 	blcc	2ce8e4 <__bss_end+0x2c641c>
  a8:	3c13490b 	ldccc	9, cr4, [r3], {11}
  ac:	0a00000c 	beq	e4 <_start-0x7f1c>
  b0:	00000018 	andeq	r0, r0, r8, lsl r0
  b4:	0300340b 	movweq	r3, #1035	; 0x40b
  b8:	3b0b3a0e 	blcc	2ce8f8 <__bss_end+0x2c6430>
  bc:	3f13490b 	svccc	0x0013490b
  c0:	000a020c 	andeq	r0, sl, ip, lsl #4
  c4:	000f0c00 	andeq	r0, pc, r0, lsl #24
  c8:	13490b0b 	movtne	r0, #39691	; 0x9b0b
  cc:	01000000 	mrseq	r0, (UNDEF: 0)
  d0:	0e250111 	mcreq	1, 1, r0, cr5, cr1, {0}
  d4:	0e030b13 	vmoveq.32	d3[0], r0
  d8:	01110e1b 	tsteq	r1, fp, lsl lr
  dc:	06100112 			; <UNDEFINED> instruction: 0x06100112
  e0:	13020000 	movwne	r0, #8192	; 0x2000
  e4:	0b080301 	bleq	200cf0 <__bss_end+0x1f8828>
  e8:	3b0b3a0b 	blcc	2ce91c <__bss_end+0x2c6454>
  ec:	0013010b 	andseq	r0, r3, fp, lsl #2
  f0:	000d0300 	andeq	r0, sp, r0, lsl #6
  f4:	0b3a0e03 	bleq	e83908 <__bss_end+0xe7b440>
  f8:	13490b3b 	movtne	r0, #39739	; 0x9b3b
  fc:	00000a38 	andeq	r0, r0, r8, lsr sl
 100:	0b000f04 	bleq	3d18 <_start-0x42e8>
 104:	0013490b 	andseq	r4, r3, fp, lsl #18
 108:	00240500 	eoreq	r0, r4, r0, lsl #10
 10c:	0b3e0b0b 	bleq	f82d40 <__bss_end+0xf7a878>
 110:	00000e03 	andeq	r0, r0, r3, lsl #28
 114:	3f012e06 	svccc	0x00012e06
 118:	3a0e030c 	bcc	380d50 <__bss_end+0x378888>
 11c:	270b3b0b 	strcs	r3, [fp, -fp, lsl #22]
 120:	1113490c 	tstne	r3, ip, lsl #18
 124:	40011201 	andmi	r1, r1, r1, lsl #4
 128:	0c429706 	mcrreq	7, 0, r9, r2, cr6
 12c:	00001301 	andeq	r1, r0, r1, lsl #6
 130:	03000507 	movweq	r0, #1287	; 0x507
 134:	3b0b3a0e 	blcc	2ce974 <__bss_end+0x2c64ac>
 138:	0213490b 	andseq	r4, r3, #180224	; 0x2c000
 13c:	0800000a 	stmdaeq	r0, {r1, r3}
 140:	08030034 	stmdaeq	r3, {r2, r4, r5}
 144:	0b3b0b3a 	bleq	ec2e34 <__bss_end+0xeba96c>
 148:	0a021349 	beq	84e74 <__bss_end+0x7c9ac>
 14c:	34090000 	strcc	r0, [r9], #-0
 150:	3a0e0300 	bcc	380d58 <__bss_end+0x378890>
 154:	490b3b0b 	stmdbmi	fp, {r0, r1, r3, r8, r9, fp, ip, sp}
 158:	000a0213 	andeq	r0, sl, r3, lsl r2
 15c:	000f0a00 	andeq	r0, pc, r0, lsl #20
 160:	00000b0b 	andeq	r0, r0, fp, lsl #22
 164:	3f012e0b 	svccc	0x00012e0b
 168:	3a0e030c 	bcc	380da0 <__bss_end+0x3788d8>
 16c:	270b3b0b 	strcs	r3, [fp, -fp, lsl #22]
 170:	1201110c 	andne	r1, r1, #3
 174:	97064001 	strls	r4, [r6, -r1]
 178:	13010c42 	movwne	r0, #7234	; 0x1c42
 17c:	050c0000 	streq	r0, [ip, #-0]
 180:	3a080300 	bcc	200d88 <__bss_end+0x1f88c0>
 184:	490b3b0b 	stmdbmi	fp, {r0, r1, r3, r8, r9, fp, ip, sp}
 188:	000a0213 	andeq	r0, sl, r3, lsl r2
 18c:	00340d00 	eorseq	r0, r4, r0, lsl #26
 190:	0b3a0e03 	bleq	e839a4 <__bss_end+0xe7b4dc>
 194:	13490b3b 	movtne	r0, #39739	; 0x9b3b
 198:	0a020c3f 	beq	8329c <__bss_end+0x7add4>
 19c:	01000000 	mrseq	r0, (UNDEF: 0)
 1a0:	0e250111 	mcreq	1, 1, r0, cr5, cr1, {0}
 1a4:	0e030b13 	vmoveq.32	d3[0], r0
 1a8:	01110e1b 	tsteq	r1, fp, lsl lr
 1ac:	06100112 			; <UNDEFINED> instruction: 0x06100112
 1b0:	24020000 	strcs	r0, [r2], #-0
 1b4:	3e0b0b00 	vmlacc.f64	d0, d11, d0
 1b8:	000e030b 	andeq	r0, lr, fp, lsl #6
 1bc:	012e0300 	teqeq	lr, r0, lsl #6
 1c0:	0e030c3f 	mcreq	12, 0, r0, cr3, cr15, {1}
 1c4:	0b3b0b3a 	bleq	ec2eb4 <__bss_end+0xeba9ec>
 1c8:	01120111 	tsteq	r2, r1, lsl r1
 1cc:	42960640 	addsmi	r0, r6, #67108864	; 0x4000000
 1d0:	0013010c 	andseq	r0, r3, ip, lsl #2
 1d4:	00340400 	eorseq	r0, r4, r0, lsl #8
 1d8:	0b3a0803 	bleq	e821ec <__bss_end+0xe79d24>
 1dc:	13490b3b 	movtne	r0, #39739	; 0x9b3b
 1e0:	00000a02 	andeq	r0, r0, r2, lsl #20
 1e4:	3f002e05 	svccc	0x00002e05
 1e8:	3a0e030c 	bcc	380e20 <__bss_end+0x378958>
 1ec:	110b3b0b 	tstne	fp, fp, lsl #22
 1f0:	40011201 	andmi	r1, r1, r1, lsl #4
 1f4:	0c429606 	mcrreq	6, 0, r9, r2, cr6
 1f8:	2e060000 	cdpcs	0, 0, cr0, cr6, cr0, {0}
 1fc:	030c3f01 	movweq	r3, #52993	; 0xcf01
 200:	3b0b3a0e 	blcc	2cea40 <__bss_end+0x2c6578>
 204:	1201110b 	andne	r1, r1, #-1073741822	; 0xc0000002
 208:	96064001 	strls	r4, [r6], -r1
 20c:	00000c42 	andeq	r0, r0, r2, asr #24
 210:	01110100 	tsteq	r1, r0, lsl #2
 214:	0b130e25 	bleq	4c3ab0 <__bss_end+0x4bb5e8>
 218:	0e1b0e03 	cdpeq	14, 1, cr0, cr11, cr3, {0}
 21c:	01120111 	tsteq	r2, r1, lsl r1
 220:	00000610 	andeq	r0, r0, r0, lsl r6
 224:	03001602 	movweq	r1, #1538	; 0x602
 228:	3b0b3a0e 	blcc	2cea68 <__bss_end+0x2c65a0>
 22c:	0013490b 	andseq	r4, r3, fp, lsl #18
 230:	000f0300 	andeq	r0, pc, r0, lsl #6
 234:	13490b0b 	movtne	r0, #39691	; 0x9b0b
 238:	15040000 	strne	r0, [r4, #-0]
 23c:	000c2700 	andeq	r2, ip, r0, lsl #14
 240:	01130500 	tsteq	r3, r0, lsl #10
 244:	0b0b0e03 	bleq	2c3a58 <__bss_end+0x2bb590>
 248:	0b3b0b3a 	bleq	ec2f38 <__bss_end+0xebaa70>
 24c:	00001301 	andeq	r1, r0, r1, lsl #6
 250:	03000d06 	movweq	r0, #3334	; 0xd06
 254:	3b0b3a08 	blcc	2cea7c <__bss_end+0x2c65b4>
 258:	3813490b 	ldmdacc	r3, {r0, r1, r3, r8, fp, lr}
 25c:	0700000a 	streq	r0, [r0, -sl]
 260:	0b0b0024 	bleq	2c02f8 <__bss_end+0x2b7e30>
 264:	0e030b3e 	vmoveq.16	d3[0], r0
 268:	2e080000 	cdpcs	0, 0, cr0, cr8, cr0, {0}
 26c:	030c3f01 	movweq	r3, #52993	; 0xcf01
 270:	3b0b3a0e 	blcc	2ceab0 <__bss_end+0x2c65e8>
 274:	110c270b 	tstne	ip, fp, lsl #14
 278:	40011201 	andmi	r1, r1, r1, lsl #4
 27c:	0c429606 	mcrreq	6, 0, r9, r2, cr6
 280:	00001301 	andeq	r1, r0, r1, lsl #6
 284:	03000509 	movweq	r0, #1289	; 0x509
 288:	3b0b3a08 	blcc	2ceab0 <__bss_end+0x2c65e8>
 28c:	0213490b 	andseq	r4, r3, #180224	; 0x2c000
 290:	0a00000a 	beq	2c0 <_start-0x7d40>
 294:	0e030005 	cdpeq	0, 0, cr0, cr3, cr5, {0}
 298:	0b3b0b3a 	bleq	ec2f88 <__bss_end+0xebaac0>
 29c:	0a021349 	beq	84fc8 <__bss_end+0x7cb00>
 2a0:	2e0b0000 	cdpcs	0, 0, cr0, cr11, cr0, {0}
 2a4:	030c3f01 	movweq	r3, #52993	; 0xcf01
 2a8:	3b0b3a0e 	blcc	2ceae8 <__bss_end+0x2c6620>
 2ac:	3c13490b 	ldccc	9, cr4, [r3], {11}
 2b0:	0c00000c 	stceq	0, cr0, [r0], {12}
 2b4:	00000018 	andeq	r0, r0, r8, lsl r0
 2b8:	0b00240d 	bleq	92f4 <__bss_end+0xe2c>
 2bc:	030b3e0b 	movweq	r3, #48651	; 0xbe0b
 2c0:	0e000008 	cdpeq	0, 0, cr0, cr0, cr8, {0}
 2c4:	0c3f012e 	ldfeqs	f0, [pc], #-184	; 214 <_start-0x7dec>
 2c8:	0b3a0e03 	bleq	e83adc <__bss_end+0xe7b614>
 2cc:	0c270b3b 	stceq	11, cr0, [r7], #-236	; 0xffffff14
 2d0:	01120111 	tsteq	r2, r1, lsl r1
 2d4:	42970a40 	addsmi	r0, r7, #262144	; 0x40000
 2d8:	0013010c 	andseq	r0, r3, ip, lsl #2
 2dc:	00340f00 	eorseq	r0, r4, r0, lsl #30
 2e0:	0b3a0e03 	bleq	e83af4 <__bss_end+0xe7b62c>
 2e4:	13490b3b 	movtne	r0, #39739	; 0x9b3b
 2e8:	0a020c3f 	beq	833ec <__bss_end+0x7af24>
 2ec:	Address 0x00000000000002ec is out of bounds.


Disassembly of section .debug_aranges:

00000000 <.debug_aranges>:
   0:	0000001c 	andeq	r0, r0, ip, lsl r0
   4:	00000002 	andeq	r0, r0, r2
   8:	00040000 	andeq	r0, r4, r0
   c:	00000000 	andeq	r0, r0, r0
  10:	00008000 	andeq	r8, r0, r0
  14:	000000d0 	ldrdeq	r0, [r0], -r0	; <UNPREDICTABLE>
	...
  20:	0000001c 	andeq	r0, r0, ip, lsl r0
  24:	005f0002 	subseq	r0, pc, r2
  28:	00040000 	andeq	r0, r4, r0
  2c:	00000000 	andeq	r0, r0, r0
  30:	000080d0 	ldrdeq	r8, [r0], -r0
  34:	000000b8 	strheq	r0, [r0], -r8
	...
  40:	0000001c 	andeq	r0, r0, ip, lsl r0
  44:	01860002 	orreq	r0, r6, r2
  48:	00040000 	andeq	r0, r4, r0
  4c:	00000000 	andeq	r0, r0, r0
  50:	00008188 	andeq	r8, r0, r8, lsl #3
  54:	00000138 	andeq	r0, r0, r8, lsr r1
	...
  60:	0000001c 	andeq	r0, r0, ip, lsl r0
  64:	02e80002 	rsceq	r0, r8, #2
  68:	00040000 	andeq	r0, r4, r0
  6c:	00000000 	andeq	r0, r0, r0
  70:	000082c0 	andeq	r8, r0, r0, asr #5
  74:	0000013c 	andeq	r0, r0, ip, lsr r1
	...
  80:	0000001c 	andeq	r0, r0, ip, lsl r0
  84:	03a40002 			; <UNDEFINED> instruction: 0x03a40002
  88:	00040000 	andeq	r0, r4, r0
  8c:	00000000 	andeq	r0, r0, r0
  90:	000083fc 	strdeq	r8, [r0], -ip
  94:	000000a4 	andeq	r0, r0, r4, lsr #1
	...

Disassembly of section .debug_loc:

00000000 <.debug_loc>:
   0:	00000000 	andeq	r0, r0, r0
   4:	00000004 	andeq	r0, r0, r4
   8:	007d0002 	rsbseq	r0, sp, r2
   c:	00000004 	andeq	r0, r0, r4
  10:	00000008 	andeq	r0, r0, r8
  14:	047d0002 	ldrbteq	r0, [sp], #-2
  18:	00000008 	andeq	r0, r0, r8
  1c:	0000002c 	andeq	r0, r0, ip, lsr #32
  20:	107d0002 	rsbsne	r0, sp, r2
	...
  2c:	0000002c 	andeq	r0, r0, ip, lsr #32
  30:	00000030 	andeq	r0, r0, r0, lsr r0
  34:	007d0002 	rsbseq	r0, sp, r2
  38:	00000030 	andeq	r0, r0, r0, lsr r0
  3c:	00000034 	andeq	r0, r0, r4, lsr r0
  40:	047d0002 	ldrbteq	r0, [sp], #-2
  44:	00000034 	andeq	r0, r0, r4, lsr r0
  48:	00000058 	andeq	r0, r0, r8, asr r0
  4c:	107d0002 	rsbsne	r0, sp, r2
	...
  58:	00000058 	andeq	r0, r0, r8, asr r0
  5c:	0000005c 	andeq	r0, r0, ip, asr r0
  60:	007d0002 	rsbseq	r0, sp, r2
  64:	0000005c 	andeq	r0, r0, ip, asr r0
  68:	000000b8 	strheq	r0, [r0], -r8
  6c:	087d0002 	ldmdaeq	sp!, {r1}^
	...
  7c:	00000004 	andeq	r0, r0, r4
  80:	007d0002 	rsbseq	r0, sp, r2
  84:	00000004 	andeq	r0, r0, r4
  88:	00000008 	andeq	r0, r0, r8
  8c:	087d0002 	ldmdaeq	sp!, {r1}^
  90:	00000008 	andeq	r0, r0, r8
  94:	000000b4 	strheq	r0, [r0], -r4
  98:	107d0002 	rsbsne	r0, sp, r2
	...
  a4:	000000b4 	strheq	r0, [r0], -r4
  a8:	000000b8 	strheq	r0, [r0], -r8
  ac:	007d0002 	rsbseq	r0, sp, r2
  b0:	000000b8 	strheq	r0, [r0], -r8
  b4:	000000bc 	strheq	r0, [r0], -ip
  b8:	047d0002 	ldrbteq	r0, [sp], #-2
  bc:	000000bc 	strheq	r0, [r0], -ip
  c0:	000000fc 	strdeq	r0, [r0], -ip
  c4:	107d0002 	rsbsne	r0, sp, r2
	...
  d0:	000000fc 	strdeq	r0, [r0], -ip
  d4:	00000100 	andeq	r0, r0, r0, lsl #2
  d8:	007d0002 	rsbseq	r0, sp, r2
  dc:	00000100 	andeq	r0, r0, r0, lsl #2
  e0:	00000138 	andeq	r0, r0, r8, lsr r1
  e4:	087d0002 	ldmdaeq	sp!, {r1}^
	...
  f4:	00000004 	andeq	r0, r0, r4
  f8:	007d0002 	rsbseq	r0, sp, r2
  fc:	00000004 	andeq	r0, r0, r4
 100:	00000008 	andeq	r0, r0, r8
 104:	047d0002 	ldrbteq	r0, [sp], #-2
 108:	00000008 	andeq	r0, r0, r8
 10c:	0000004c 	andeq	r0, r0, ip, asr #32
 110:	107d0002 	rsbsne	r0, sp, r2
	...
 11c:	0000004c 	andeq	r0, r0, ip, asr #32
 120:	00000050 	andeq	r0, r0, r0, asr r0
 124:	007d0002 	rsbseq	r0, sp, r2
 128:	00000050 	andeq	r0, r0, r0, asr r0
 12c:	00000064 	andeq	r0, r0, r4, rrx
 130:	087d0002 	ldmdaeq	sp!, {r1}^
	...
 13c:	00000064 	andeq	r0, r0, r4, rrx
 140:	00000068 	andeq	r0, r0, r8, rrx
 144:	007d0002 	rsbseq	r0, sp, r2
 148:	00000068 	andeq	r0, r0, r8, rrx
 14c:	0000007c 	andeq	r0, r0, ip, ror r0
 150:	087d0002 	ldmdaeq	sp!, {r1}^
	...
 15c:	0000007c 	andeq	r0, r0, ip, ror r0
 160:	00000080 	andeq	r0, r0, r0, lsl #1
 164:	007d0002 	rsbseq	r0, sp, r2
 168:	00000080 	andeq	r0, r0, r0, lsl #1
 16c:	00000084 	andeq	r0, r0, r4, lsl #1
 170:	047d0002 	ldrbteq	r0, [sp], #-2
 174:	00000084 	andeq	r0, r0, r4, lsl #1
 178:	0000013c 	andeq	r0, r0, ip, lsr r1
 17c:	107d0002 	rsbsne	r0, sp, r2
	...
 18c:	00000004 	andeq	r0, r0, r4
 190:	007d0002 	rsbseq	r0, sp, r2
 194:	00000004 	andeq	r0, r0, r4
 198:	00000008 	andeq	r0, r0, r8
 19c:	047d0002 	ldrbteq	r0, [sp], #-2
 1a0:	00000008 	andeq	r0, r0, r8
 1a4:	00000048 	andeq	r0, r0, r8, asr #32
 1a8:	187d0002 	ldmdane	sp!, {r1}^
	...

Disassembly of section .debug_str:

00000000 <.debug_str>:
   0:	5f787463 	svcpl	0x00787463
   4:	676e6970 			; <UNDEFINED> instruction: 0x676e6970
   8:	696e6900 	stmdbvs	lr!, {r8, fp, sp, lr}^
   c:	77685f74 			; <UNDEFINED> instruction: 0x77685f74
  10:	554e4700 	strbpl	r4, [lr, #-1792]	; 0x700
  14:	34204320 	strtcc	r4, [r0], #-800	; 0x320
  18:	312e372e 	teqcc	lr, lr, lsr #14
  1c:	616d6b00 	cmnvs	sp, r0, lsl #22
  20:	6b006e69 	blvs	1b9cc <__bss_end+0x13504>
  24:	656e7265 	strbvs	r7, [lr, #-613]!	; 0x265
  28:	00632e6c 	rsbeq	r2, r3, ip, ror #28
  2c:	5f787463 	svcpl	0x00787463
  30:	74696e69 	strbtvc	r6, [r9], #-3689	; 0xe69
  34:	72756300 	rsbsvc	r6, r5, #0
  38:	746e6572 	strbtvc	r6, [lr], #-1394	; 0x572
  3c:	7874635f 	ldmdavc	r4!, {r0, r1, r2, r3, r4, r6, r8, r9, sp, lr}^
  40:	6f682f00 	svcvs	0x00682f00
  44:	6d2f656d 	cfstr32vs	mvfx6, [pc, #-436]!	; fffffe98 <__bss_end+0xffff79d0>
  48:	636e6562 	cmnvs	lr, #411041792	; 0x18800000
  4c:	726b6168 	rsbvc	r6, fp, #26
  50:	c3542f6f 	cmpgt	r4, #444	; 0x1bc
  54:	a9c36ca9 	stmibge	r3, {r0, r3, r5, r7, sl, fp, sp, lr}^
  58:	72616863 	rsbvc	r6, r1, #6488064	; 0x630000
  5c:	656d6567 	strbvs	r6, [sp, #-1383]!	; 0x567
  60:	2f73746e 	svccs	0x0073746e
  64:	6970736f 	ldmdbvs	r0!, {r0, r1, r2, r3, r5, r6, r8, r9, ip, sp, lr}^
  68:	74732d65 	ldrbtvc	r2, [r3], #-3429	; 0xd65
  6c:	00747261 	rsbseq	r7, r4, r1, ror #4
  70:	5f787463 	svcpl	0x00787463
  74:	74630073 	strbtvc	r0, [r3], #-115	; 0x73
  78:	6f705f78 	svcvs	0x00705f78
  7c:	7000676e 	andvc	r6, r0, lr, ror #14
  80:	6c417968 	mcrrvs	9, 6, r7, r1, cr8
  84:	2e636f6c 	cdpcs	15, 6, cr6, cr3, cr12, {3}
  88:	72700063 	rsbsvc	r0, r0, #99	; 0x63
  8c:	66007665 	strvs	r7, [r0], -r5, ror #12
  90:	6c656572 	cfstr64vs	mvdx6, [r5], #-456	; 0xfffffe38
  94:	00747369 	rsbseq	r7, r4, r9, ror #6
  98:	41796870 	cmnmi	r9, r0, ror r8
  9c:	636f6c6c 	cmnvs	pc, #27648	; 0x6c00
  a0:	6c6c615f 	stfvse	f6, [ip], #-380	; 0xfffffe84
  a4:	7000636f 	andvc	r6, r0, pc, ror #6
  a8:	6c417968 	mcrrvs	9, 6, r7, r1, cr8
  ac:	5f636f6c 	svcpl	0x00636f6c
  b0:	65657266 	strbvs	r7, [r5, #-614]!	; 0x266
  b4:	61656800 	cmnvs	r5, r0, lsl #16
  b8:	74735f70 	ldrbtvc	r5, [r3], #-3952	; 0xf70
  bc:	00747261 	rsbseq	r7, r4, r1, ror #4
  c0:	7478656e 	ldrbtvc	r6, [r8], #-1390	; 0x56e
  c4:	79687000 	stmdbvc	r8!, {ip, sp, lr}^
  c8:	6f6c6c41 	svcvs	0x006c6c41
  cc:	6e695f63 	cdpvs	15, 6, cr5, cr9, cr3, {3}
  d0:	68007469 	stmdavs	r0, {r0, r3, r5, r6, sl, ip, sp, lr}
  d4:	5f706165 	svcpl	0x00706165
  d8:	696d696c 	stmdbvs	sp!, {r2, r3, r5, r6, r8, fp, sp, lr}^
  dc:	65680074 	strbvs	r0, [r8, #-116]!	; 0x74
  e0:	735f7061 	cmpvc	pc, #97	; 0x61
  e4:	00657a69 	rsbeq	r7, r5, r9, ror #20
  e8:	69736e75 	ldmdbvs	r3!, {r0, r2, r4, r5, r6, r9, sl, fp, sp, lr}^
  ec:	64656e67 	strbtvs	r6, [r5], #-3687	; 0xe67
  f0:	61686320 	cmnvs	r8, r0, lsr #6
  f4:	77680072 			; <UNDEFINED> instruction: 0x77680072
  f8:	6c00632e 	stcvs	3, cr6, [r0], {46}	; 0x2e
  fc:	6f5f6465 	svcvs	0x005f6465
 100:	6573006e 	ldrbvs	r0, [r3, #-110]!	; 0x6e
 104:	69745f74 	ldmdbvs	r4!, {r2, r4, r5, r6, r8, r9, sl, fp, ip, lr}^
 108:	615f6b63 	cmpvs	pc, r3, ror #22
 10c:	655f646e 	ldrbvs	r6, [pc, #-1134]	; fffffca6 <__bss_end+0xffff77de>
 110:	6c62616e 	stfvse	f6, [r2], #-440	; 0xfffffe48
 114:	69745f65 	ldmdbvs	r4!, {r0, r2, r5, r6, r8, r9, sl, fp, ip, lr}^
 118:	0072656d 	rsbseq	r6, r2, sp, ror #10
 11c:	726f6873 	rsbvc	r6, pc, #7536640	; 0x730000
 120:	6e752074 	mrcvs	0, 3, r2, cr5, cr4, {3}
 124:	6e676973 	mcrvs	9, 3, r6, cr7, cr3, {3}
 128:	69206465 	stmdbvs	r0!, {r0, r2, r5, r6, sl, sp, lr}
 12c:	6c00746e 	cfstrsvs	mvf7, [r0], {110}	; 0x6e
 130:	6f5f6465 	svcvs	0x005f6465
 134:	66006666 	strvs	r6, [r0], -r6, ror #12
 138:	5f636e75 	svcpl	0x00636e75
 13c:	74730074 	ldrbtvc	r0, [r3], #-116	; 0x74
 140:	5f6b6361 	svcpl	0x006b6361
 144:	657a6973 	ldrbvs	r6, [sl, #-2419]!	; 0x973
 148:	68637300 	stmdavs	r3!, {r8, r9, ip, sp, lr}^
 14c:	632e6465 	teqvs	lr, #1694498816	; 0x65000000
 150:	69777300 	ldmdbvs	r7!, {r8, r9, ip, sp, lr}^
 154:	5f686374 	svcpl	0x00686374
 158:	69006f74 	stmdbvs	r0, {r2, r4, r5, r6, r8, r9, sl, fp, sp, lr}
 15c:	5f74696e 	svcpl	0x0074696e
 160:	00787463 	rsbseq	r7, r8, r3, ror #8

Disassembly of section .debug_frame:

00000000 <.debug_frame>:
   0:	0000000c 	andeq	r0, r0, ip
   4:	ffffffff 			; <UNDEFINED> instruction: 0xffffffff
   8:	7c020001 	stcvc	0, cr0, [r2], {1}
   c:	000d0c0e 	andeq	r0, sp, lr, lsl #24
  10:	00000014 	andeq	r0, r0, r4, lsl r0
  14:	00000000 	andeq	r0, r0, r0
  18:	000080d0 	ldrdeq	r8, [r0], -r0
  1c:	0000002c 	andeq	r0, r0, ip, lsr #32
  20:	8e040e42 	cdphi	14, 0, cr0, cr4, cr2, {2}
  24:	100e4201 	andne	r4, lr, r1, lsl #4
  28:	00000014 	andeq	r0, r0, r4, lsl r0
  2c:	00000000 	andeq	r0, r0, r0
  30:	000080fc 	strdeq	r8, [r0], -ip
  34:	0000002c 	andeq	r0, r0, ip, lsr #32
  38:	8e040e42 	cdphi	14, 0, cr0, cr4, cr2, {2}
  3c:	100e4201 	andne	r4, lr, r1, lsl #4
  40:	00000014 	andeq	r0, r0, r4, lsl r0
  44:	00000000 	andeq	r0, r0, r0
  48:	00008128 	andeq	r8, r0, r8, lsr #2
  4c:	00000060 	andeq	r0, r0, r0, rrx
  50:	83080e42 	movwhi	r0, #36418	; 0x8e42
  54:	00018e02 	andeq	r8, r1, r2, lsl #28
  58:	0000000c 	andeq	r0, r0, ip
  5c:	ffffffff 			; <UNDEFINED> instruction: 0xffffffff
  60:	7c020001 	stcvc	0, cr0, [r2], {1}
  64:	000d0c0e 	andeq	r0, sp, lr, lsl #24
  68:	00000018 	andeq	r0, r0, r8, lsl r0
  6c:	00000058 	andeq	r0, r0, r8, asr r0
  70:	00008188 	andeq	r8, r0, r8, lsl #3
  74:	000000b4 	strheq	r0, [r0], -r4
  78:	84080e42 	strhi	r0, [r8], #-3650	; 0xe42
  7c:	42018502 	andmi	r8, r1, #8388608	; 0x800000
  80:	0000100e 	andeq	r1, r0, lr
  84:	00000014 	andeq	r0, r0, r4, lsl r0
  88:	00000058 	andeq	r0, r0, r8, asr r0
  8c:	0000823c 	andeq	r8, r0, ip, lsr r2
  90:	00000048 	andeq	r0, r0, r8, asr #32
  94:	84040e42 	strhi	r0, [r4], #-3650	; 0xe42
  98:	100e4201 	andne	r4, lr, r1, lsl #4
  9c:	00000010 	andeq	r0, r0, r0, lsl r0
  a0:	00000058 	andeq	r0, r0, r8, asr r0
  a4:	00008284 	andeq	r8, r0, r4, lsl #5
  a8:	0000003c 	andeq	r0, r0, ip, lsr r0
  ac:	00080e42 	andeq	r0, r8, r2, asr #28
  b0:	0000000c 	andeq	r0, r0, ip
  b4:	ffffffff 			; <UNDEFINED> instruction: 0xffffffff
  b8:	7c020001 	stcvc	0, cr0, [r2], {1}
  bc:	000d0c0e 	andeq	r0, sp, lr, lsl #24
  c0:	00000014 	andeq	r0, r0, r4, lsl r0
  c4:	000000b0 	strheq	r0, [r0], -r0	; <UNPREDICTABLE>
  c8:	000082c0 	andeq	r8, r0, r0, asr #5
  cc:	0000004c 	andeq	r0, r0, ip, asr #32
  d0:	8e040e42 	cdphi	14, 0, cr0, cr4, cr2, {2}
  d4:	100e4201 	andne	r4, lr, r1, lsl #4
  d8:	00000014 	andeq	r0, r0, r4, lsl r0
  dc:	000000b0 	strheq	r0, [r0], -r0	; <UNPREDICTABLE>
  e0:	0000830c 	andeq	r8, r0, ip, lsl #6
  e4:	00000018 	andeq	r0, r0, r8, lsl r0
  e8:	83080e42 	movwhi	r0, #36418	; 0x8e42
  ec:	00018e02 	andeq	r8, r1, r2, lsl #28
  f0:	00000014 	andeq	r0, r0, r4, lsl r0
  f4:	000000b0 	strheq	r0, [r0], -r0	; <UNPREDICTABLE>
  f8:	00008324 	andeq	r8, r0, r4, lsr #6
  fc:	00000018 	andeq	r0, r0, r8, lsl r0
 100:	83080e42 	movwhi	r0, #36418	; 0x8e42
 104:	00018e02 	andeq	r8, r1, r2, lsl #28
 108:	00000014 	andeq	r0, r0, r4, lsl r0
 10c:	000000b0 	strheq	r0, [r0], -r0	; <UNPREDICTABLE>
 110:	0000833c 	andeq	r8, r0, ip, lsr r3
 114:	000000c0 	andeq	r0, r0, r0, asr #1
 118:	8e040e42 	cdphi	14, 0, cr0, cr4, cr2, {2}
 11c:	100e4201 	andne	r4, lr, r1, lsl #4
 120:	0000000c 	andeq	r0, r0, ip
 124:	ffffffff 			; <UNDEFINED> instruction: 0xffffffff
 128:	7c020001 	stcvc	0, cr0, [r2], {1}
 12c:	000d0c0e 	andeq	r0, sp, lr, lsl #24
 130:	00000014 	andeq	r0, r0, r4, lsl r0
 134:	00000120 	andeq	r0, r0, r0, lsr #2
 138:	000083fc 	strdeq	r8, [r0], -ip
 13c:	00000048 	andeq	r0, r0, r8, asr #32
 140:	8e040e42 	cdphi	14, 0, cr0, cr4, cr2, {2}
 144:	180e4201 	stmdane	lr, {r0, r9, lr}
 148:	0000000c 	andeq	r0, r0, ip
 14c:	00000120 	andeq	r0, r0, r0, lsr #2
 150:	00008444 	andeq	r8, r0, r4, asr #8
 154:	0000005c 	andeq	r0, r0, ip, asr r0
