
kernel.elf:     file format elf32-littlearm


Disassembly of section .text:

00008000 <_start>:
    8000:	e59ff018 	ldr	pc, [pc, #24]	; 8020 <reset_handler>
    8004:	e59ff018 	ldr	pc, [pc, #24]	; 8024 <undefined_handler>
    8008:	e59ff018 	ldr	pc, [pc, #24]	; 8028 <swi_handler>
    800c:	e59ff018 	ldr	pc, [pc, #24]	; 802c <prefetch_handler>
    8010:	e59ff018 	ldr	pc, [pc, #24]	; 8030 <data_handler>
    8014:	e59ff018 	ldr	pc, [pc, #24]	; 8034 <unused_handler>
    8018:	e59ff018 	ldr	pc, [pc, #24]	; 8038 <irq_handler>
    801c:	e59ff018 	ldr	pc, [pc, #24]	; 803c <fiq_handler>

00008020 <reset_handler>:
    8020:	00008040 	andeq	r8, r0, r0, asr #32

00008024 <undefined_handler>:
    8024:	00008084 	andeq	r8, r0, r4, lsl #1

00008028 <swi_handler>:
    8028:	00008088 	andeq	r8, r0, r8, lsl #1

0000802c <prefetch_handler>:
    802c:	0000808c 	andeq	r8, r0, ip, lsl #1

00008030 <data_handler>:
    8030:	00008090 	muleq	r0, r0, r0

00008034 <unused_handler>:
    8034:	00008094 	muleq	r0, r4, r0

00008038 <irq_handler>:
    8038:	000080cc 	andeq	r8, r0, ip, asr #1

0000803c <fiq_handler>:
    803c:	00008098 	muleq	r0, r8, r0

00008040 <reset>:
    8040:	e3a00902 	mov	r0, #32768	; 0x8000
    8044:	e3a01000 	mov	r1, #0
    8048:	e8b003fc 	ldm	r0!, {r2, r3, r4, r5, r6, r7, r8, r9}
    804c:	e8a103fc 	stmia	r1!, {r2, r3, r4, r5, r6, r7, r8, r9}
    8050:	e8b003fc 	ldm	r0!, {r2, r3, r4, r5, r6, r7, r8, r9}
    8054:	e8a103fc 	stmia	r1!, {r2, r3, r4, r5, r6, r7, r8, r9}
    8058:	e3a000d1 	mov	r0, #209	; 0xd1
    805c:	e121f000 	msr	CPSR_c, r0
    8060:	e3a0d90e 	mov	sp, #229376	; 0x38000
    8064:	e3a000d2 	mov	r0, #210	; 0xd2
    8068:	e121f000 	msr	CPSR_c, r0
    806c:	e3a0d701 	mov	sp, #262144	; 0x40000
    8070:	e3a000d3 	mov	r0, #211	; 0xd3
    8074:	e121f000 	msr	CPSR_c, r0
    8078:	e3a0d912 	mov	sp, #294912	; 0x48000
    807c:	eb00003a 	bl	816c <kmain>

00008080 <hang>:
    8080:	eafffffe 	b	8080 <hang>

00008084 <undefined>:
    8084:	eafffffe 	b	8084 <undefined>

00008088 <swi>:
    8088:	eafffffe 	b	8088 <swi>

0000808c <prefetch>:
    808c:	eafffffe 	b	808c <prefetch>

00008090 <data>:
    8090:	eafffffe 	b	8090 <data>

00008094 <unused>:
    8094:	eafffffe 	b	8094 <unused>

00008098 <fiq>:
    8098:	eafffffe 	b	8098 <fiq>

0000809c <PUT32>:
    809c:	e5801000 	str	r1, [r0]
    80a0:	e12fff1e 	bx	lr

000080a4 <PUT16>:
    80a4:	e1c010b0 	strh	r1, [r0]
    80a8:	e12fff1e 	bx	lr

000080ac <PUT8>:
    80ac:	e5c01000 	strb	r1, [r0]
    80b0:	e12fff1e 	bx	lr

000080b4 <GET32>:
    80b4:	e5900000 	ldr	r0, [r0]
    80b8:	e12fff1e 	bx	lr

000080bc <GETPC>:
    80bc:	e1a0000e 	mov	r0, lr
    80c0:	e12fff1e 	bx	lr

000080c4 <BRANCHTO>:
    80c4:	e12fff10 	bx	r0

000080c8 <dummy>:
    80c8:	e12fff1e 	bx	lr

000080cc <irq>:
    80cc:	ea000175 	b	86a8 <ctx_switch_from_irq>

000080d0 <funcA>:
    80d0:	e52de004 	push	{lr}		; (str lr, [sp, #-4]!)
    80d4:	e24dd00c 	sub	sp, sp, #12
    80d8:	e3a03000 	mov	r3, #0
    80dc:	e58d3004 	str	r3, [sp, #4]
    80e0:	e59d3004 	ldr	r3, [sp, #4]
    80e4:	e2833001 	add	r3, r3, #1
    80e8:	e58d3004 	str	r3, [sp, #4]
    80ec:	eb0001a8 	bl	8794 <ctx_switch>
    80f0:	eafffffa 	b	80e0 <funcA+0x10>

000080f4 <funcB>:
    80f4:	e52de004 	push	{lr}		; (str lr, [sp, #-4]!)
    80f8:	e24dd00c 	sub	sp, sp, #12
    80fc:	e3a03001 	mov	r3, #1
    8100:	e58d3004 	str	r3, [sp, #4]
    8104:	e59d3004 	ldr	r3, [sp, #4]
    8108:	e2833002 	add	r3, r3, #2
    810c:	e58d3004 	str	r3, [sp, #4]
    8110:	eb00019f 	bl	8794 <ctx_switch>
    8114:	eafffffa 	b	8104 <funcB+0x10>

00008118 <funcC>:
    8118:	e52de004 	push	{lr}		; (str lr, [sp, #-4]!)
    811c:	e24dd00c 	sub	sp, sp, #12
    8120:	e3a03002 	mov	r3, #2
    8124:	e58d3004 	str	r3, [sp, #4]
    8128:	e3a03000 	mov	r3, #0
    812c:	e58d3000 	str	r3, [sp]
    8130:	e3a03000 	mov	r3, #0
    8134:	e58d3000 	str	r3, [sp]
    8138:	ea000006 	b	8158 <funcC+0x40>
    813c:	e59d3004 	ldr	r3, [sp, #4]
    8140:	e2833003 	add	r3, r3, #3
    8144:	e58d3004 	str	r3, [sp, #4]
    8148:	eb000191 	bl	8794 <ctx_switch>
    814c:	e59d3000 	ldr	r3, [sp]
    8150:	e2833001 	add	r3, r3, #1
    8154:	e58d3000 	str	r3, [sp]
    8158:	e59d3000 	ldr	r3, [sp]
    815c:	e3530004 	cmp	r3, #4
    8160:	dafffff5 	ble	813c <funcC+0x24>
    8164:	e28dd00c 	add	sp, sp, #12
    8168:	e8bd8000 	pop	{pc}

0000816c <kmain>:
    816c:	e92d4008 	push	{r3, lr}
    8170:	eb000078 	bl	8358 <init_hw>
    8174:	e59f0020 	ldr	r0, [pc, #32]	; 819c <kmain+0x30>
    8178:	e3a01000 	mov	r1, #0
    817c:	e3a02b01 	mov	r2, #1024	; 0x400
    8180:	eb0000ca 	bl	84b0 <create_process>
    8184:	e59f0014 	ldr	r0, [pc, #20]	; 81a0 <kmain+0x34>
    8188:	e3a01000 	mov	r1, #0
    818c:	e3a02b01 	mov	r2, #1024	; 0x400
    8190:	eb0000c6 	bl	84b0 <create_process>
    8194:	eb000135 	bl	8670 <start_sched>
    8198:	eafffffe 	b	8198 <kmain+0x2c>
    819c:	000080f4 	strdeq	r8, [r0], -r4
    81a0:	000080d0 	ldrdeq	r8, [r0], -r0

000081a4 <phyAlloc_alloc>:
    81a4:	e92d0030 	push	{r4, r5}
    81a8:	e24dd008 	sub	sp, sp, #8
    81ac:	e58d0004 	str	r0, [sp, #4]
    81b0:	e59f3094 	ldr	r3, [pc, #148]	; 824c <phyAlloc_alloc+0xa8>
    81b4:	e5934000 	ldr	r4, [r3]
    81b8:	e59f508c 	ldr	r5, [pc, #140]	; 824c <phyAlloc_alloc+0xa8>
    81bc:	ea000001 	b	81c8 <phyAlloc_alloc+0x24>
    81c0:	e1a05004 	mov	r5, r4
    81c4:	e5944000 	ldr	r4, [r4]
    81c8:	e3540000 	cmp	r4, #0
    81cc:	0a000003 	beq	81e0 <phyAlloc_alloc+0x3c>
    81d0:	e5942004 	ldr	r2, [r4, #4]
    81d4:	e59d3004 	ldr	r3, [sp, #4]
    81d8:	e1520003 	cmp	r2, r3
    81dc:	3afffff7 	bcc	81c0 <phyAlloc_alloc+0x1c>
    81e0:	e3540000 	cmp	r4, #0
    81e4:	1a000011 	bne	8230 <phyAlloc_alloc+0x8c>
    81e8:	e59f3060 	ldr	r3, [pc, #96]	; 8250 <phyAlloc_alloc+0xac>
    81ec:	e5934000 	ldr	r4, [r3]
    81f0:	e59f3058 	ldr	r3, [pc, #88]	; 8250 <phyAlloc_alloc+0xac>
    81f4:	e5932000 	ldr	r2, [r3]
    81f8:	e59d3004 	ldr	r3, [sp, #4]
    81fc:	e2833003 	add	r3, r3, #3
    8200:	e3c33003 	bic	r3, r3, #3
    8204:	e0822003 	add	r2, r2, r3
    8208:	e59f3040 	ldr	r3, [pc, #64]	; 8250 <phyAlloc_alloc+0xac>
    820c:	e5832000 	str	r2, [r3]
    8210:	e59f3038 	ldr	r3, [pc, #56]	; 8250 <phyAlloc_alloc+0xac>
    8214:	e5932000 	ldr	r2, [r3]
    8218:	e59f3034 	ldr	r3, [pc, #52]	; 8254 <phyAlloc_alloc+0xb0>
    821c:	e5933000 	ldr	r3, [r3]
    8220:	e1520003 	cmp	r2, r3
    8224:	9a000003 	bls	8238 <phyAlloc_alloc+0x94>
    8228:	e3a03000 	mov	r3, #0
    822c:	ea000002 	b	823c <phyAlloc_alloc+0x98>
    8230:	e5943000 	ldr	r3, [r4]
    8234:	e5853000 	str	r3, [r5]
    8238:	e1a03004 	mov	r3, r4
    823c:	e1a00003 	mov	r0, r3
    8240:	e28dd008 	add	sp, sp, #8
    8244:	e8bd0030 	pop	{r4, r5}
    8248:	e12fff1e 	bx	lr
    824c:	00008844 	andeq	r8, r0, r4, asr #16
    8250:	00008848 	andeq	r8, r0, r8, asr #16
    8254:	0000884c 	andeq	r8, r0, ip, asr #16

00008258 <phyAlloc_free>:
    8258:	e52d4004 	push	{r4}		; (str r4, [sp, #-4]!)
    825c:	e24dd00c 	sub	sp, sp, #12
    8260:	e58d0004 	str	r0, [sp, #4]
    8264:	e58d1000 	str	r1, [sp]
    8268:	e59d4004 	ldr	r4, [sp, #4]
    826c:	e59d3000 	ldr	r3, [sp]
    8270:	e2833003 	add	r3, r3, #3
    8274:	e3c33003 	bic	r3, r3, #3
    8278:	e5843004 	str	r3, [r4, #4]
    827c:	e59f3018 	ldr	r3, [pc, #24]	; 829c <phyAlloc_free+0x44>
    8280:	e5933000 	ldr	r3, [r3]
    8284:	e5843000 	str	r3, [r4]
    8288:	e59f300c 	ldr	r3, [pc, #12]	; 829c <phyAlloc_free+0x44>
    828c:	e5834000 	str	r4, [r3]
    8290:	e28dd00c 	add	sp, sp, #12
    8294:	e8bd0010 	pop	{r4}
    8298:	e12fff1e 	bx	lr
    829c:	00008844 	andeq	r8, r0, r4, asr #16

000082a0 <phyAlloc_init>:
    82a0:	e24dd008 	sub	sp, sp, #8
    82a4:	e58d0004 	str	r0, [sp, #4]
    82a8:	e58d1000 	str	r1, [sp]
    82ac:	e59f3020 	ldr	r3, [pc, #32]	; 82d4 <phyAlloc_init+0x34>
    82b0:	e59d2004 	ldr	r2, [sp, #4]
    82b4:	e5832000 	str	r2, [r3]
    82b8:	e59d2004 	ldr	r2, [sp, #4]
    82bc:	e59d3000 	ldr	r3, [sp]
    82c0:	e0822003 	add	r2, r2, r3
    82c4:	e59f300c 	ldr	r3, [pc, #12]	; 82d8 <phyAlloc_init+0x38>
    82c8:	e5832000 	str	r2, [r3]
    82cc:	e28dd008 	add	sp, sp, #8
    82d0:	e12fff1e 	bx	lr
    82d4:	00008848 	andeq	r8, r0, r8, asr #16
    82d8:	0000884c 	andeq	r8, r0, ip, asr #16

000082dc <set_tick_and_enable_timer>:
    82dc:	e52de004 	push	{lr}		; (str lr, [sp, #-4]!)
    82e0:	e24dd00c 	sub	sp, sp, #12
    82e4:	e59f0030 	ldr	r0, [pc, #48]	; 831c <set_tick_and_enable_timer+0x40>
    82e8:	ebffff71 	bl	80b4 <GET32>
    82ec:	e58d0004 	str	r0, [sp, #4]
    82f0:	e59d3004 	ldr	r3, [sp, #4]
    82f4:	e2833702 	add	r3, r3, #524288	; 0x80000
    82f8:	e58d3004 	str	r3, [sp, #4]
    82fc:	e59f001c 	ldr	r0, [pc, #28]	; 8320 <set_tick_and_enable_timer+0x44>
    8300:	e59d1004 	ldr	r1, [sp, #4]
    8304:	ebffff64 	bl	809c <PUT32>
    8308:	e59f0014 	ldr	r0, [pc, #20]	; 8324 <set_tick_and_enable_timer+0x48>
    830c:	e3a01002 	mov	r1, #2
    8310:	ebffff61 	bl	809c <PUT32>
    8314:	e28dd00c 	add	sp, sp, #12
    8318:	e8bd8000 	pop	{pc}
    831c:	20003004 	andcs	r3, r0, r4
    8320:	20003010 	andcs	r3, r0, r0, lsl r0
    8324:	20003000 	andcs	r3, r0, r0

00008328 <led_off>:
    8328:	e92d4008 	push	{r3, lr}
    832c:	e59f0008 	ldr	r0, [pc, #8]	; 833c <led_off+0x14>
    8330:	e3a01801 	mov	r1, #65536	; 0x10000
    8334:	ebffff58 	bl	809c <PUT32>
    8338:	e8bd8008 	pop	{r3, pc}
    833c:	2020001c 	eorcs	r0, r0, ip, lsl r0

00008340 <led_on>:
    8340:	e92d4008 	push	{r3, lr}
    8344:	e59f0008 	ldr	r0, [pc, #8]	; 8354 <led_on+0x14>
    8348:	e3a01801 	mov	r1, #65536	; 0x10000
    834c:	ebffff52 	bl	809c <PUT32>
    8350:	e8bd8008 	pop	{r3, pc}
    8354:	20200028 	eorcs	r0, r0, r8, lsr #32

00008358 <init_hw>:
    8358:	e52de004 	push	{lr}		; (str lr, [sp, #-4]!)
    835c:	e24dd00c 	sub	sp, sp, #12
    8360:	e59f0098 	ldr	r0, [pc, #152]	; 8400 <init_hw+0xa8>
    8364:	ebffff52 	bl	80b4 <GET32>
    8368:	e58d0004 	str	r0, [sp, #4]
    836c:	e59d3004 	ldr	r3, [sp, #4]
    8370:	e3c33707 	bic	r3, r3, #1835008	; 0x1c0000
    8374:	e58d3004 	str	r3, [sp, #4]
    8378:	e59d3004 	ldr	r3, [sp, #4]
    837c:	e3833701 	orr	r3, r3, #262144	; 0x40000
    8380:	e58d3004 	str	r3, [sp, #4]
    8384:	e59f0074 	ldr	r0, [pc, #116]	; 8400 <init_hw+0xa8>
    8388:	e59d1004 	ldr	r1, [sp, #4]
    838c:	ebffff42 	bl	809c <PUT32>
    8390:	e59f006c 	ldr	r0, [pc, #108]	; 8404 <init_hw+0xac>
    8394:	e3a01801 	mov	r1, #65536	; 0x10000
    8398:	ebffff3f 	bl	809c <PUT32>
    839c:	e59f0064 	ldr	r0, [pc, #100]	; 8408 <init_hw+0xb0>
    83a0:	ebffff43 	bl	80b4 <GET32>
    83a4:	e58d0000 	str	r0, [sp]
    83a8:	e59d3000 	ldr	r3, [sp]
    83ac:	e2833702 	add	r3, r3, #524288	; 0x80000
    83b0:	e58d3000 	str	r3, [sp]
    83b4:	e59f0050 	ldr	r0, [pc, #80]	; 840c <init_hw+0xb4>
    83b8:	e59d1000 	ldr	r1, [sp]
    83bc:	ebffff36 	bl	809c <PUT32>
    83c0:	e59f0048 	ldr	r0, [pc, #72]	; 8410 <init_hw+0xb8>
    83c4:	e3a01002 	mov	r1, #2
    83c8:	ebffff33 	bl	809c <PUT32>
    83cc:	e59f0040 	ldr	r0, [pc, #64]	; 8414 <init_hw+0xbc>
    83d0:	e3a01002 	mov	r1, #2
    83d4:	ebffff30 	bl	809c <PUT32>
    83d8:	e92d0001 	push	{r0}
    83dc:	e10f0000 	mrs	r0, CPSR
    83e0:	e3800080 	orr	r0, r0, #128	; 0x80
    83e4:	e121f000 	msr	CPSR_c, r0
    83e8:	e8bd0001 	pop	{r0}
    83ec:	e3a00805 	mov	r0, #327680	; 0x50000
    83f0:	e3a01a32 	mov	r1, #204800	; 0x32000
    83f4:	ebffffa9 	bl	82a0 <phyAlloc_init>
    83f8:	e28dd00c 	add	sp, sp, #12
    83fc:	e8bd8000 	pop	{pc}
    8400:	20200004 	eorcs	r0, r0, r4
    8404:	2020001c 	eorcs	r0, r0, ip, lsl r0
    8408:	20003004 	andcs	r3, r0, r4
    840c:	20003010 	andcs	r3, r0, r0, lsl r0
    8410:	20003000 	andcs	r3, r0, r0
    8414:	2000b210 	andcs	fp, r0, r0, lsl r2

00008418 <init_pcb>:
    8418:	e52de004 	push	{lr}		; (str lr, [sp, #-4]!)
    841c:	e24dd014 	sub	sp, sp, #20
    8420:	e58d000c 	str	r0, [sp, #12]
    8424:	e58d1008 	str	r1, [sp, #8]
    8428:	e58d2004 	str	r2, [sp, #4]
    842c:	e58d3000 	str	r3, [sp]
    8430:	e59f3074 	ldr	r3, [pc, #116]	; 84ac <init_pcb+0x94>
    8434:	e5933000 	ldr	r3, [r3]
    8438:	e1a01003 	mov	r1, r3
    843c:	e59d200c 	ldr	r2, [sp, #12]
    8440:	e5821000 	str	r1, [r2]
    8444:	e2832001 	add	r2, r3, #1
    8448:	e59f305c 	ldr	r3, [pc, #92]	; 84ac <init_pcb+0x94>
    844c:	e5832000 	str	r2, [r3]
    8450:	e59d300c 	ldr	r3, [sp, #12]
    8454:	e3a02000 	mov	r2, #0
    8458:	e5c32004 	strb	r2, [r3, #4]
    845c:	e59d300c 	ldr	r3, [sp, #12]
    8460:	e59d2008 	ldr	r2, [sp, #8]
    8464:	e5832010 	str	r2, [r3, #16]
    8468:	e59d300c 	ldr	r3, [sp, #12]
    846c:	e59d2004 	ldr	r2, [sp, #4]
    8470:	e5832014 	str	r2, [r3, #20]
    8474:	e59d2008 	ldr	r2, [sp, #8]
    8478:	e59d300c 	ldr	r3, [sp, #12]
    847c:	e583200c 	str	r2, [r3, #12]
    8480:	e59d0000 	ldr	r0, [sp]
    8484:	ebffff46 	bl	81a4 <phyAlloc_alloc>
    8488:	e1a03000 	mov	r3, r0
    848c:	e1a02003 	mov	r2, r3
    8490:	e59d3000 	ldr	r3, [sp]
    8494:	e0823003 	add	r3, r2, r3
    8498:	e2432034 	sub	r2, r3, #52	; 0x34
    849c:	e59d300c 	ldr	r3, [sp, #12]
    84a0:	e5832008 	str	r2, [r3, #8]
    84a4:	e28dd014 	add	sp, sp, #20
    84a8:	e8bd8000 	pop	{pc}
    84ac:	0000885c 	andeq	r8, r0, ip, asr r8

000084b0 <create_process>:
    84b0:	e52de004 	push	{lr}		; (str lr, [sp, #-4]!)
    84b4:	e24dd01c 	sub	sp, sp, #28
    84b8:	e58d000c 	str	r0, [sp, #12]
    84bc:	e58d1008 	str	r1, [sp, #8]
    84c0:	e58d2004 	str	r2, [sp, #4]
    84c4:	e3a0001c 	mov	r0, #28
    84c8:	ebffff35 	bl	81a4 <phyAlloc_alloc>
    84cc:	e1a03000 	mov	r3, r0
    84d0:	e58d3014 	str	r3, [sp, #20]
    84d4:	e59f30a0 	ldr	r3, [pc, #160]	; 857c <create_process+0xcc>
    84d8:	e5933000 	ldr	r3, [r3]
    84dc:	e3530000 	cmp	r3, #0
    84e0:	1a000010 	bne	8528 <create_process+0x78>
    84e4:	e59f3090 	ldr	r3, [pc, #144]	; 857c <create_process+0xcc>
    84e8:	e59d2014 	ldr	r2, [sp, #20]
    84ec:	e5832000 	str	r2, [r3]
    84f0:	e59f3088 	ldr	r3, [pc, #136]	; 8580 <create_process+0xd0>
    84f4:	e59d2014 	ldr	r2, [sp, #20]
    84f8:	e5832000 	str	r2, [r3]
    84fc:	e59f3078 	ldr	r3, [pc, #120]	; 857c <create_process+0xcc>
    8500:	e5933000 	ldr	r3, [r3]
    8504:	e59f2074 	ldr	r2, [pc, #116]	; 8580 <create_process+0xd0>
    8508:	e5922000 	ldr	r2, [r2]
    850c:	e5832018 	str	r2, [r3, #24]
    8510:	e59f3068 	ldr	r3, [pc, #104]	; 8580 <create_process+0xd0>
    8514:	e5933000 	ldr	r3, [r3]
    8518:	e59f205c 	ldr	r2, [pc, #92]	; 857c <create_process+0xcc>
    851c:	e5922000 	ldr	r2, [r2]
    8520:	e5832018 	str	r2, [r3, #24]
    8524:	ea00000a 	b	8554 <create_process+0xa4>
    8528:	e59f3050 	ldr	r3, [pc, #80]	; 8580 <create_process+0xd0>
    852c:	e5933000 	ldr	r3, [r3]
    8530:	e59d2014 	ldr	r2, [sp, #20]
    8534:	e5832018 	str	r2, [r3, #24]
    8538:	e59f303c 	ldr	r3, [pc, #60]	; 857c <create_process+0xcc>
    853c:	e5932000 	ldr	r2, [r3]
    8540:	e59d3014 	ldr	r3, [sp, #20]
    8544:	e5832018 	str	r2, [r3, #24]
    8548:	e59f3030 	ldr	r3, [pc, #48]	; 8580 <create_process+0xd0>
    854c:	e59d2014 	ldr	r2, [sp, #20]
    8550:	e5832000 	str	r2, [r3]
    8554:	e59d0014 	ldr	r0, [sp, #20]
    8558:	e59d100c 	ldr	r1, [sp, #12]
    855c:	e59d2008 	ldr	r2, [sp, #8]
    8560:	e59d3004 	ldr	r3, [sp, #4]
    8564:	ebffffab 	bl	8418 <init_pcb>
    8568:	e59d3014 	ldr	r3, [sp, #20]
    856c:	e5933000 	ldr	r3, [r3]
    8570:	e1a00003 	mov	r0, r3
    8574:	e28dd01c 	add	sp, sp, #28
    8578:	e8bd8000 	pop	{pc}
    857c:	00008850 	andeq	r8, r0, r0, asr r8
    8580:	00008854 	andeq	r8, r0, r4, asr r8

00008584 <elect>:
    8584:	e52de004 	push	{lr}		; (str lr, [sp, #-4]!)
    8588:	e24dd014 	sub	sp, sp, #20
    858c:	e59f30d8 	ldr	r3, [pc, #216]	; 866c <elect+0xe8>
    8590:	e5933000 	ldr	r3, [r3]
    8594:	e58d300c 	str	r3, [sp, #12]
    8598:	ea00000a 	b	85c8 <elect+0x44>
    859c:	e59d300c 	ldr	r3, [sp, #12]
    85a0:	e5933018 	ldr	r3, [r3, #24]
    85a4:	e5932000 	ldr	r2, [r3]
    85a8:	e59f30bc 	ldr	r3, [pc, #188]	; 866c <elect+0xe8>
    85ac:	e5933000 	ldr	r3, [r3]
    85b0:	e5933000 	ldr	r3, [r3]
    85b4:	e1520003 	cmp	r2, r3
    85b8:	0a000008 	beq	85e0 <elect+0x5c>
    85bc:	e59d300c 	ldr	r3, [sp, #12]
    85c0:	e5933018 	ldr	r3, [r3, #24]
    85c4:	e58d300c 	str	r3, [sp, #12]
    85c8:	e59d300c 	ldr	r3, [sp, #12]
    85cc:	e5933018 	ldr	r3, [r3, #24]
    85d0:	e5d33004 	ldrb	r3, [r3, #4]
    85d4:	e3530004 	cmp	r3, #4
    85d8:	1affffef 	bne	859c <elect+0x18>
    85dc:	ea000000 	b	85e4 <elect+0x60>
    85e0:	e1a00000 	nop			; (mov r0, r0)
    85e4:	e59f3080 	ldr	r3, [pc, #128]	; 866c <elect+0xe8>
    85e8:	e59d200c 	ldr	r2, [sp, #12]
    85ec:	e5832000 	str	r2, [r3]
    85f0:	e59d300c 	ldr	r3, [sp, #12]
    85f4:	e5933000 	ldr	r3, [r3]
    85f8:	e58d3008 	str	r3, [sp, #8]
    85fc:	ea000012 	b	864c <elect+0xc8>
    8600:	e59d300c 	ldr	r3, [sp, #12]
    8604:	e5933018 	ldr	r3, [r3, #24]
    8608:	e5d33004 	ldrb	r3, [r3, #4]
    860c:	e3530004 	cmp	r3, #4
    8610:	1a00000a 	bne	8640 <elect+0xbc>
    8614:	e59d300c 	ldr	r3, [sp, #12]
    8618:	e5933018 	ldr	r3, [r3, #24]
    861c:	e58d3004 	str	r3, [sp, #4]
    8620:	e59d300c 	ldr	r3, [sp, #12]
    8624:	e5933018 	ldr	r3, [r3, #24]
    8628:	e5932018 	ldr	r2, [r3, #24]
    862c:	e59d300c 	ldr	r3, [sp, #12]
    8630:	e5832018 	str	r2, [r3, #24]
    8634:	e59d0004 	ldr	r0, [sp, #4]
    8638:	e3a0101c 	mov	r1, #28
    863c:	ebffff05 	bl	8258 <phyAlloc_free>
    8640:	e59d300c 	ldr	r3, [sp, #12]
    8644:	e5933018 	ldr	r3, [r3, #24]
    8648:	e58d300c 	str	r3, [sp, #12]
    864c:	e59d2008 	ldr	r2, [sp, #8]
    8650:	e59d300c 	ldr	r3, [sp, #12]
    8654:	e5933018 	ldr	r3, [r3, #24]
    8658:	e5933000 	ldr	r3, [r3]
    865c:	e1520003 	cmp	r2, r3
    8660:	1affffe6 	bne	8600 <elect+0x7c>
    8664:	e28dd014 	add	sp, sp, #20
    8668:	e8bd8000 	pop	{pc}
    866c:	00008858 	andeq	r8, r0, r8, asr r8

00008670 <start_sched>:
    8670:	e92d4008 	push	{r3, lr}
    8674:	e59f3024 	ldr	r3, [pc, #36]	; 86a0 <start_sched+0x30>
    8678:	e5932000 	ldr	r2, [r3]
    867c:	e59f3020 	ldr	r3, [pc, #32]	; 86a4 <start_sched+0x34>
    8680:	e5832000 	str	r2, [r3]
    8684:	e92d0001 	push	{r0}
    8688:	e10f0000 	mrs	r0, CPSR
    868c:	e3c00080 	bic	r0, r0, #128	; 0x80
    8690:	e121f000 	msr	CPSR_c, r0
    8694:	e8bd0001 	pop	{r0}
    8698:	ebffff0f 	bl	82dc <set_tick_and_enable_timer>
    869c:	e8bd8008 	pop	{r3, pc}
    86a0:	00008850 	andeq	r8, r0, r0, asr r8
    86a4:	00008858 	andeq	r8, r0, r8, asr r8

000086a8 <ctx_switch_from_irq>:
    86a8:	e92d4008 	push	{r3, lr}
    86ac:	e92d0001 	push	{r0}
    86b0:	e10f0000 	mrs	r0, CPSR
    86b4:	e3800080 	orr	r0, r0, #128	; 0x80
    86b8:	e121f000 	msr	CPSR_c, r0
    86bc:	e8bd0001 	pop	{r0}
    86c0:	e24ee004 	sub	lr, lr, #4
    86c4:	f96d0513 	srsdb	sp!, #19
    86c8:	f1020013 	cps	#19
    86cc:	e92d1fff 	push	{r0, r1, r2, r3, r4, r5, r6, r7, r8, r9, sl, fp, ip}
    86d0:	e59f30b8 	ldr	r3, [pc, #184]	; 8790 <ctx_switch_from_irq+0xe8>
    86d4:	e5933000 	ldr	r3, [r3]
    86d8:	e1a0200d 	mov	r2, sp
    86dc:	e5832008 	str	r2, [r3, #8]
    86e0:	e59f30a8 	ldr	r3, [pc, #168]	; 8790 <ctx_switch_from_irq+0xe8>
    86e4:	e5933000 	ldr	r3, [r3]
    86e8:	e1a0200e 	mov	r2, lr
    86ec:	e583200c 	str	r2, [r3, #12]
    86f0:	ebffffa3 	bl	8584 <elect>
    86f4:	e59f3094 	ldr	r3, [pc, #148]	; 8790 <ctx_switch_from_irq+0xe8>
    86f8:	e5933000 	ldr	r3, [r3]
    86fc:	e5933008 	ldr	r3, [r3, #8]
    8700:	e1a0d003 	mov	sp, r3
    8704:	e59f3084 	ldr	r3, [pc, #132]	; 8790 <ctx_switch_from_irq+0xe8>
    8708:	e5933000 	ldr	r3, [r3]
    870c:	e593300c 	ldr	r3, [r3, #12]
    8710:	e1a0e003 	mov	lr, r3
    8714:	e8bd1fff 	pop	{r0, r1, r2, r3, r4, r5, r6, r7, r8, r9, sl, fp, ip}
    8718:	ebfffeef 	bl	82dc <set_tick_and_enable_timer>
    871c:	e92d0001 	push	{r0}
    8720:	e10f0000 	mrs	r0, CPSR
    8724:	e3c00080 	bic	r0, r0, #128	; 0x80
    8728:	e121f000 	msr	CPSR_c, r0
    872c:	e8bd0001 	pop	{r0}
    8730:	e59f3058 	ldr	r3, [pc, #88]	; 8790 <ctx_switch_from_irq+0xe8>
    8734:	e5933000 	ldr	r3, [r3]
    8738:	e5d33004 	ldrb	r3, [r3, #4]
    873c:	e3530000 	cmp	r3, #0
    8740:	1a00000c 	bne	8778 <ctx_switch_from_irq+0xd0>
    8744:	e59f3044 	ldr	r3, [pc, #68]	; 8790 <ctx_switch_from_irq+0xe8>
    8748:	e5933000 	ldr	r3, [r3]
    874c:	e3a02001 	mov	r2, #1
    8750:	e5c32004 	strb	r2, [r3, #4]
    8754:	e59f3034 	ldr	r3, [pc, #52]	; 8790 <ctx_switch_from_irq+0xe8>
    8758:	e5933000 	ldr	r3, [r3]
    875c:	e5933010 	ldr	r3, [r3, #16]
    8760:	e12fff33 	blx	r3
    8764:	e59f3024 	ldr	r3, [pc, #36]	; 8790 <ctx_switch_from_irq+0xe8>
    8768:	e5933000 	ldr	r3, [r3]
    876c:	e3a02004 	mov	r2, #4
    8770:	e5c32004 	strb	r2, [r3, #4]
    8774:	ea000003 	b	8788 <ctx_switch_from_irq+0xe0>
    8778:	e59f3010 	ldr	r3, [pc, #16]	; 8790 <ctx_switch_from_irq+0xe8>
    877c:	e5933000 	ldr	r3, [r3]
    8780:	e3a02002 	mov	r2, #2
    8784:	e5c32004 	strb	r2, [r3, #4]
    8788:	f8bd0a00 	rfeia	sp!
    878c:	e8bd8008 	pop	{r3, pc}
    8790:	00008858 	andeq	r8, r0, r8, asr r8

00008794 <ctx_switch>:
    8794:	e92d1fff 	push	{r0, r1, r2, r3, r4, r5, r6, r7, r8, r9, sl, fp, ip}
    8798:	e59f30a0 	ldr	r3, [pc, #160]	; 8840 <ctx_switch+0xac>
    879c:	e5933000 	ldr	r3, [r3]
    87a0:	e1a0200d 	mov	r2, sp
    87a4:	e5832008 	str	r2, [r3, #8]
    87a8:	e59f3090 	ldr	r3, [pc, #144]	; 8840 <ctx_switch+0xac>
    87ac:	e5933000 	ldr	r3, [r3]
    87b0:	e1a0200e 	mov	r2, lr
    87b4:	e583200c 	str	r2, [r3, #12]
    87b8:	ebffff71 	bl	8584 <elect>
    87bc:	e59f307c 	ldr	r3, [pc, #124]	; 8840 <ctx_switch+0xac>
    87c0:	e5933000 	ldr	r3, [r3]
    87c4:	e5933008 	ldr	r3, [r3, #8]
    87c8:	e1a0d003 	mov	sp, r3
    87cc:	e59f306c 	ldr	r3, [pc, #108]	; 8840 <ctx_switch+0xac>
    87d0:	e5933000 	ldr	r3, [r3]
    87d4:	e593300c 	ldr	r3, [r3, #12]
    87d8:	e1a0e003 	mov	lr, r3
    87dc:	e8bd1fff 	pop	{r0, r1, r2, r3, r4, r5, r6, r7, r8, r9, sl, fp, ip}
    87e0:	e59f3058 	ldr	r3, [pc, #88]	; 8840 <ctx_switch+0xac>
    87e4:	e5933000 	ldr	r3, [r3]
    87e8:	e5d33004 	ldrb	r3, [r3, #4]
    87ec:	e3530000 	cmp	r3, #0
    87f0:	1a00000d 	bne	882c <ctx_switch+0x98>
    87f4:	e59f3044 	ldr	r3, [pc, #68]	; 8840 <ctx_switch+0xac>
    87f8:	e5933000 	ldr	r3, [r3]
    87fc:	e3a02001 	mov	r2, #1
    8800:	e5c32004 	strb	r2, [r3, #4]
    8804:	e59f3034 	ldr	r3, [pc, #52]	; 8840 <ctx_switch+0xac>
    8808:	e5933000 	ldr	r3, [r3]
    880c:	e5933010 	ldr	r3, [r3, #16]
    8810:	e12fff33 	blx	r3
    8814:	e59f3024 	ldr	r3, [pc, #36]	; 8840 <ctx_switch+0xac>
    8818:	e5933000 	ldr	r3, [r3]
    881c:	e3a02004 	mov	r2, #4
    8820:	e5c32004 	strb	r2, [r3, #4]
    8824:	ebffffda 	bl	8794 <ctx_switch>
    8828:	ea000003 	b	883c <ctx_switch+0xa8>
    882c:	e59f300c 	ldr	r3, [pc, #12]	; 8840 <ctx_switch+0xac>
    8830:	e5933000 	ldr	r3, [r3]
    8834:	e3a02002 	mov	r2, #2
    8838:	e5c32004 	strb	r2, [r3, #4]
    883c:	e12fff1e 	bx	lr
    8840:	00008858 	andeq	r8, r0, r8, asr r8

Disassembly of section .bss:

00008844 <freelist>:
    8844:	00000000 	andeq	r0, r0, r0

00008848 <top>:
    8848:	00000000 	andeq	r0, r0, r0

0000884c <heap_limit>:
    884c:	00000000 	andeq	r0, r0, r0

00008850 <first_process>:
    8850:	00000000 	andeq	r0, r0, r0

00008854 <last_process>:
    8854:	00000000 	andeq	r0, r0, r0

00008858 <current_process>:
    8858:	00000000 	andeq	r0, r0, r0

0000885c <compteur.4229>:
    885c:	00000000 	andeq	r0, r0, r0

00008860 <current_ctx>:
    8860:	00000000 	andeq	r0, r0, r0

Disassembly of section .ARM.attributes:

00000000 <.ARM.attributes>:
   0:	00003141 	andeq	r3, r0, r1, asr #2
   4:	61656100 	cmnvs	r5, r0, lsl #2
   8:	01006962 	tsteq	r0, r2, ror #18
   c:	00000027 	andeq	r0, r0, r7, lsr #32
  10:	005a3605 	subseq	r3, sl, r5, lsl #12
  14:	01080706 	tsteq	r8, r6, lsl #14
  18:	020a0109 	andeq	r0, sl, #1073741826	; 0x40000002
  1c:	01140412 	tsteq	r4, r2, lsl r4
  20:	03170115 	tsteq	r7, #1073741829	; 0x40000005
  24:	011a0118 	tsteq	sl, r8, lsl r1
  28:	011c031b 	tsteq	ip, fp, lsl r3
  2c:	012c0122 	teqeq	ip, r2, lsr #2
  30:	Address 0x0000000000000030 is out of bounds.


Disassembly of section .comment:

00000000 <.comment>:
   0:	3a434347 	bcc	10d0d24 <__bss_end+0x10c84c0>
   4:	4e472820 	cdpmi	8, 4, cr2, cr7, cr0, {1}
   8:	34202955 	strtcc	r2, [r0], #-2389	; 0x955
   c:	312e372e 	teqcc	lr, lr, lsr #14
	...

Disassembly of section .debug_line:

00000000 <.debug_line>:
   0:	00000061 	andeq	r0, r0, r1, rrx
   4:	00200002 	eoreq	r0, r0, r2
   8:	01020000 	mrseq	r0, (UNDEF: 2)
   c:	000d0efb 	strdeq	r0, [sp], -fp
  10:	01010101 	tsteq	r1, r1, lsl #2
  14:	01000000 	mrseq	r0, (UNDEF: 0)
  18:	00010000 	andeq	r0, r1, r0
  1c:	74636576 	strbtvc	r6, [r3], #-1398	; 0x576
  20:	2e73726f 	cdpcs	2, 7, cr7, cr3, cr15, {3}
  24:	00000073 	andeq	r0, r0, r3, ror r0
  28:	05000000 	streq	r0, [r0, #-0]
  2c:	00800002 	addeq	r0, r0, r2
  30:	2f2f1900 	svccs	0x002f1900
  34:	2f2f2f2f 	svccs	0x002f2f2f
  38:	080b032f 	stmdaeq	fp, {r0, r1, r2, r3, r5, r8, r9}
  3c:	2f2f2f20 	svccs	0x002f2f20
  40:	2f322f2f 	svccs	0x00322f2f
  44:	2f2f322f 	svccs	0x002f322f
  48:	302f2f31 	eorcc	r2, pc, r1, lsr pc	; <UNPREDICTABLE>
  4c:	2f2f2f30 	svccs	0x002f2f30
  50:	322f2f2f 	eorcc	r2, pc, #188	; 0xbc
  54:	322f322f 	eorcc	r3, pc, #-268435454	; 0xf0000002
  58:	322f322f 	eorcc	r3, pc, #-268435454	; 0xf0000002
  5c:	3032322f 	eorscc	r3, r2, pc, lsr #4
  60:	01000202 	tsteq	r0, r2, lsl #4
  64:	00008301 	andeq	r8, r0, r1, lsl #6
  68:	2a000200 	bcs	870 <_start-0x7790>
  6c:	02000000 	andeq	r0, r0, #0
  70:	0d0efb01 	vstreq	d15, [lr, #-4]
  74:	01010100 	mrseq	r0, (UNDEF: 17)
  78:	00000001 	andeq	r0, r0, r1
  7c:	01000001 	tsteq	r0, r1
  80:	72656b00 	rsbvc	r6, r5, #0
  84:	2e6c656e 	cdpcs	5, 6, cr6, cr12, cr14, {3}
  88:	00000063 	andeq	r0, r0, r3, rrx
  8c:	68637300 	stmdavs	r3!, {r8, r9, ip, sp, lr}^
  90:	682e6465 	stmdavs	lr!, {r0, r2, r5, r6, sl, sp, lr}
  94:	00000000 	andeq	r0, r0, r0
  98:	02050000 	andeq	r0, r5, #0
  9c:	000080d0 	ldrdeq	r8, [r0], -r0
  a0:	02004b15 	andeq	r4, r0, #21504	; 0x5400
  a4:	004c0104 	subeq	r0, ip, r4, lsl #2
  a8:	67010402 	strvs	r0, [r1, -r2, lsl #8]
  ac:	01040200 	mrseq	r0, R12_usr
  b0:	004b302f 	subeq	r3, fp, pc, lsr #32
  b4:	4c010402 	cfstrsmi	mvf0, [r1], {2}
  b8:	01040200 	mrseq	r0, R12_usr
  bc:	04020067 	streq	r0, [r2], #-103	; 0x67
  c0:	4b322f01 	blmi	c8bccc <__bss_end+0xc83468>
  c4:	02004b4b 	andeq	r4, r0, #76800	; 0x12c00
  c8:	00680204 	rsbeq	r0, r8, r4, lsl #4
  cc:	67020402 	strvs	r0, [r2, -r2, lsl #8]
  d0:	02040200 	andeq	r0, r4, #0
  d4:	0402002b 	streq	r0, [r2], #-43	; 0x2b
  d8:	06660601 	strbteq	r0, [r6], -r1, lsl #12
  dc:	2f2f4c6c 	svccs	0x002f4c6c
  e0:	02008383 	andeq	r8, r0, #201326594	; 0xc000002
  e4:	02300104 	eorseq	r0, r0, #1
  e8:	01010006 	tsteq	r1, r6
  ec:	00000059 	andeq	r0, r0, r9, asr r0
  f0:	00210002 	eoreq	r0, r1, r2
  f4:	01020000 	mrseq	r0, (UNDEF: 2)
  f8:	000d0efb 	strdeq	r0, [sp], -fp
  fc:	01010101 	tsteq	r1, r1, lsl #2
 100:	01000000 	mrseq	r0, (UNDEF: 0)
 104:	00010000 	andeq	r0, r1, r0
 108:	41796870 	cmnmi	r9, r0, ror r8
 10c:	636f6c6c 	cmnvs	pc, #27648	; 0x6c00
 110:	0000632e 	andeq	r6, r0, lr, lsr #6
 114:	00000000 	andeq	r0, r0, r0
 118:	81a40205 			; <UNDEFINED> instruction: 0x81a40205
 11c:	0c030000 	stceq	0, cr0, [r3], {-0}
 120:	2f4c6701 	svccs	0x004c6701
 124:	02002f2f 	andeq	r2, r0, #188	; 0xbc
 128:	002c0104 	eoreq	r0, ip, r4, lsl #2
 12c:	06020402 	streq	r0, [r2], -r2, lsl #8
 130:	4b86064a 	blmi	fe181a60 <__bss_end+0xfe1791fc>
 134:	4cbbf44b 	cfldrsmi	mvf15, [fp], #300	; 0x12c
 138:	83da2f4c 	bicshi	r2, sl, #304	; 0x130
 13c:	4b678330 	blmi	19e0e04 <__bss_end+0x19d85a0>
 140:	9f676786 	svcls	0x00676786
 144:	01000802 	tsteq	r0, r2, lsl #16
 148:	00004b01 	andeq	r4, r0, r1, lsl #22
 14c:	1b000200 	blne	954 <_start-0x76ac>
 150:	02000000 	andeq	r0, r0, #0
 154:	0d0efb01 	vstreq	d15, [lr, #-4]
 158:	01010100 	mrseq	r0, (UNDEF: 17)
 15c:	00000001 	andeq	r0, r0, r1
 160:	01000001 	tsteq	r0, r1
 164:	2e776800 	cdpcs	8, 7, cr6, cr7, cr0, {0}
 168:	00000063 	andeq	r0, r0, r3, rrx
 16c:	05000000 	streq	r0, [r0, #-0]
 170:	0082dc02 	addeq	sp, r2, r2, lsl #24
 174:	011c0300 	tsteq	ip, r0, lsl #6
 178:	6867674b 	stmdavs	r7!, {r0, r1, r3, r6, r8, r9, sl, sp, lr}^
 17c:	9e090367 	cdpls	3, 0, cr0, cr9, cr7, {3}
 180:	2f4e672f 	svccs	0x004e672f
 184:	674f5167 	strbvs	r5, [pc, -r7, ror #2]
 188:	69696767 	stmdbvs	r9!, {r0, r1, r2, r5, r6, r8, r9, sl, sp, lr}^
 18c:	696a6767 	stmdbvs	sl!, {r0, r1, r2, r5, r6, r8, r9, sl, sp, lr}^
 190:	0267a068 	rsbeq	sl, r7, #104	; 0x68
 194:	01010010 	tsteq	r1, r0, lsl r0
 198:	00000097 	muleq	r0, r7, r0
 19c:	00290002 	eoreq	r0, r9, r2
 1a0:	01020000 	mrseq	r0, (UNDEF: 2)
 1a4:	000d0efb 	strdeq	r0, [sp], -fp
 1a8:	01010101 	tsteq	r1, r1, lsl #2
 1ac:	01000000 	mrseq	r0, (UNDEF: 0)
 1b0:	00010000 	andeq	r0, r1, r0
 1b4:	65686373 	strbvs	r6, [r8, #-883]!	; 0x373
 1b8:	00632e64 	rsbeq	r2, r3, r4, ror #28
 1bc:	73000000 	movwvc	r0, #0
 1c0:	64656863 	strbtvs	r6, [r5], #-2147	; 0x863
 1c4:	0000682e 	andeq	r6, r0, lr, lsr #16
 1c8:	00000000 	andeq	r0, r0, r0
 1cc:	84180205 	ldrhi	r0, [r8], #-517	; 0x205
 1d0:	bc170000 	ldclt	0, cr0, [r7], {-0}
 1d4:	696769f3 	stmdbvs	r7!, {r0, r1, r4, r5, r6, r7, r8, fp, sp, lr}^
 1d8:	68220868 	stmdavs	r2!, {r3, r5, r6, fp}
 1dc:	6784849f 			; <UNDEFINED> instruction: 0x6784849f
 1e0:	83bc9f68 			; <UNDEFINED> instruction: 0x83bc9f68
 1e4:	4ba06883 	blmi	fe81a3f8 <__bss_end+0xfe811b94>
 1e8:	2f694ba2 	svccs	0x00694ba2
 1ec:	040200f3 	streq	r0, [r2], #-243	; 0xf3
 1f0:	32bb6401 	adcscc	r6, fp, #16777216	; 0x1000000
 1f4:	9f30676a 	svcls	0x0030676a
 1f8:	00689f68 	rsbeq	r9, r8, r8, ror #30
 1fc:	03010402 	movweq	r0, #5122	; 0x1402
 200:	0f036678 	svceq	0x00036678
 204:	832f6aba 	teqhi	pc, #761856	; 0xba000
 208:	30692f9f 	mlscc	r9, pc, pc, r2	; <UNPREDICTABLE>
 20c:	342f2f9f 	strtcc	r2, [pc], #-3999	; 214 <_start-0x7dec>
 210:	3185832f 	orrcc	r8, r5, pc, lsr #6
 214:	2f318383 	svccs	0x00318383
 218:	8383a0a0 	orrhi	sl, r3, #160	; 0xa0
 21c:	4c2f85a0 	cfstr32mi	mvfx8, [pc], #-640	; ffffffa4 <__bss_end+0xffff7740>
 220:	85832f17 	strhi	r2, [r3, #3863]	; 0xf17
 224:	31838331 	orrcc	r8, r3, r1, lsr r3
 228:	838383a0 	orrhi	r8, r3, #-2147483646	; 0x80000002
 22c:	0402844c 	streq	r8, [r2], #-1100	; 0x44c
 230:	Address 0x0000000000000230 is out of bounds.


Disassembly of section .debug_info:

00000000 <.debug_info>:
   0:	0000006e 	andeq	r0, r0, lr, rrx
   4:	00000002 	andeq	r0, r0, r2
   8:	01040000 	mrseq	r0, (UNDEF: 4)
   c:	00000000 	andeq	r0, r0, r0
  10:	00008000 	andeq	r8, r0, r0
  14:	000080d0 	ldrdeq	r8, [r0], -r0
  18:	74636576 	strbtvc	r6, [r3], #-1398	; 0x576
  1c:	2e73726f 	cdpcs	2, 7, cr7, cr3, cr15, {3}
  20:	682f0073 	stmdavs	pc!, {r0, r1, r4, r5, r6}	; <UNPREDICTABLE>
  24:	2f656d6f 	svccs	0x00656d6f
  28:	74696b6d 	strbtvc	r6, [r9], #-2925	; 0xb6d
  2c:	2f656e61 	svccs	0x00656e61
  30:	6ca9c354 	stcvs	3, cr12, [r9], #336	; 0x150
  34:	6863a9c3 	stmdavs	r3!, {r0, r1, r6, r7, r8, fp, sp, pc}^
  38:	65677261 	strbvs	r7, [r7, #-609]!	; 0x261
  3c:	746e656d 	strbtvc	r6, [lr], #-1389	; 0x56d
  40:	61722f73 	cmnvs	r2, r3, ror pc
  44:	72656273 	rsbvc	r6, r5, #805306375	; 0x30000007
  48:	69507972 	ldmdbvs	r0, {r1, r4, r5, r6, r8, fp, ip, sp, lr}^
  4c:	64724f2f 	ldrbtvs	r4, [r2], #-3887	; 0xf2f
  50:	616e6e6f 	cmnvs	lr, pc, ror #28
  54:	7565636e 	strbvc	r6, [r5, #-878]!	; 0x36e
  58:	72702072 	rsbsvc	r2, r0, #114	; 0x72
  5c:	706d6565 	rsbvc	r6, sp, r5, ror #10
  60:	00666974 	rsbeq	r6, r6, r4, ror r9
  64:	20554e47 	subscs	r4, r5, r7, asr #28
  68:	32205341 	eorcc	r5, r0, #67108865	; 0x4000001
  6c:	0032322e 	eorseq	r3, r2, lr, lsr #4
  70:	01b28001 			; <UNDEFINED> instruction: 0x01b28001
  74:	00020000 	andeq	r0, r2, r0
  78:	00000014 	andeq	r0, r0, r4, lsl r0
  7c:	00270104 	eoreq	r0, r7, r4, lsl #2
  80:	96010000 	strls	r0, [r1], -r0
  84:	b5000000 	strlt	r0, [r0, #-0]
  88:	d0000000 	andle	r0, r0, r0
  8c:	a4000080 	strge	r0, [r0], #-128	; 0x80
  90:	65000081 	strvs	r0, [r0, #-129]	; 0x81
  94:	02000000 	andeq	r0, r0, #0
  98:	00420704 	subeq	r0, r2, r4, lsl #14
  9c:	01020000 	mrseq	r0, (UNDEF: 2)
  a0:	00001b06 	andeq	r1, r0, r6, lsl #22
  a4:	08010200 	stmdaeq	r1, {r9}
  a8:	00000019 	andeq	r0, r0, r9, lsl r0
  ac:	9f050202 	svcls	0x00050202
  b0:	02000000 	andeq	r0, r0, #0
  b4:	00830702 	addeq	r0, r3, r2, lsl #14
  b8:	04030000 	streq	r0, [r3], #-0
  bc:	746e6905 	strbtvc	r6, [lr], #-2309	; 0x905
  c0:	05080200 	streq	r0, [r8, #-512]	; 0x200
  c4:	00000000 	andeq	r0, r0, r0
  c8:	38070802 	stmdacc	r7, {r1, fp}
  cc:	02000000 	andeq	r0, r0, #0
  d0:	00050504 	andeq	r0, r5, r4, lsl #10
  d4:	04020000 	streq	r0, [r2], #-0
  d8:	0000f707 	andeq	pc, r0, r7, lsl #14
  dc:	07040200 	streq	r0, [r4, -r0, lsl #4]
  e0:	0000003d 	andeq	r0, r0, sp, lsr r0
  e4:	22080102 	andcs	r0, r8, #-2147483648	; 0x80000000
  e8:	04000000 	streq	r0, [r0], #-0
  ec:	00000066 	andeq	r0, r0, r6, rrx
  f0:	a0070208 	andge	r0, r7, r8, lsl #4
  f4:	05000000 	streq	r0, [r0, #-0]
  f8:	02007073 	andeq	r7, r0, #115	; 0x73
  fc:	00002509 	andeq	r2, r0, r9, lsl #10
 100:	00230200 	eoreq	r0, r3, r0, lsl #4
 104:	00726c05 	rsbseq	r6, r2, r5, lsl #24
 108:	00250a02 	eoreq	r0, r5, r2, lsl #20
 10c:	23020000 	movwcs	r0, #8192	; 0x2000
 110:	01060004 	tsteq	r6, r4
 114:	00000054 	andeq	r0, r0, r4, asr r0
 118:	80d00401 	sbcshi	r0, r0, r1, lsl #8
 11c:	80f40000 	rscshi	r0, r4, r0
 120:	00000000 	andeq	r0, r0, r0
 124:	e1010000 	mrs	r0, (UNDEF: 1)
 128:	07000000 	streq	r0, [r0, -r0]
 12c:	00000033 	andeq	r0, r0, r3, lsr r0
 130:	00480501 	subeq	r0, r8, r1, lsl #10
 134:	91020000 	mrsls	r0, (UNDEF: 2)
 138:	80e00874 	rschi	r0, r0, r4, ror r8
 13c:	80f00000 	rscshi	r0, r0, r0
 140:	01090000 	mrseq	r0, (UNDEF: 9)
 144:	0000006c 	andeq	r0, r0, ip, rrx
 148:	00480801 	subeq	r0, r8, r1, lsl #16
 14c:	0a010000 	beq	40154 <__bss_end+0x378f0>
 150:	06000000 	streq	r0, [r0], -r0
 154:	00005a01 	andeq	r5, r0, r1, lsl #20
 158:	f40b0100 	vst4.8	{d0,d2,d4,d6}, [fp], r0
 15c:	18000080 	stmdane	r0, {r7}
 160:	2c000081 	stccs	0, cr0, [r0], {129}	; 0x81
 164:	01000000 	mrseq	r0, (UNDEF: 0)
 168:	00000122 	andeq	r0, r0, r2, lsr #2
 16c:	00001407 	andeq	r1, r0, r7, lsl #8
 170:	480c0100 	stmdami	ip, {r8}
 174:	02000000 	andeq	r0, r0, #0
 178:	04087491 	streq	r7, [r8], #-1169	; 0x491
 17c:	14000081 	strne	r0, [r0], #-129	; 0x81
 180:	09000081 	stmdbeq	r0, {r0, r7}
 184:	00006c01 	andeq	r6, r0, r1, lsl #24
 188:	48080100 	stmdami	r8, {r8}
 18c:	01000000 	mrseq	r0, (UNDEF: 0)
 190:	0000000a 	andeq	r0, r0, sl
 194:	00600106 	rsbeq	r0, r0, r6, lsl #2
 198:	13010000 	movwne	r0, #4096	; 0x1000
 19c:	00008118 	andeq	r8, r0, r8, lsl r1
 1a0:	0000816c 	andeq	r8, r0, ip, ror #2
 1a4:	00000058 	andeq	r0, r0, r8, asr r0
 1a8:	00016f01 	andeq	r6, r1, r1, lsl #30
 1ac:	004f0700 	subeq	r0, pc, r0, lsl #14
 1b0:	15010000 	strne	r0, [r1, #-0]
 1b4:	00000048 	andeq	r0, r0, r8, asr #32
 1b8:	0b749102 	bleq	1d245c8 <__bss_end+0x1d1bd64>
 1bc:	16010069 	strne	r0, [r1], -r9, rrx
 1c0:	00000048 	andeq	r0, r0, r8, asr #32
 1c4:	08709102 	ldmdaeq	r0!, {r1, r8, ip, pc}^
 1c8:	0000813c 	andeq	r8, r0, ip, lsr r1
 1cc:	0000814c 	andeq	r8, r0, ip, asr #2
 1d0:	006c0109 	rsbeq	r0, ip, r9, lsl #2
 1d4:	08010000 	stmdaeq	r1, {}	; <UNPREDICTABLE>
 1d8:	00000048 	andeq	r0, r0, r8, asr #32
 1dc:	00000a01 	andeq	r0, r0, r1, lsl #20
 1e0:	0e010c00 	cdpeq	12, 0, cr0, cr1, cr0, {0}
 1e4:	01000000 	mrseq	r0, (UNDEF: 0)
 1e8:	0048011f 	subeq	r0, r8, pc, lsl r1
 1ec:	816c0000 	cmnhi	ip, r0
 1f0:	81a40000 			; <UNDEFINED> instruction: 0x81a40000
 1f4:	00840000 	addeq	r0, r4, r0
 1f8:	9d010000 	stcls	0, cr0, [r1, #-0]
 1fc:	09000001 	stmdbeq	r0, {r0}
 200:	00007701 	andeq	r7, r0, r1, lsl #14
 204:	48230100 	stmdami	r3!, {r8}
 208:	01000000 	mrseq	r0, (UNDEF: 0)
 20c:	0d00000a 	stceq	0, cr0, [r0, #-40]	; 0xffffffd8
 210:	000000a9 	andeq	r0, r0, r9, lsr #1
 214:	01af0d02 			; <UNDEFINED> instruction: 0x01af0d02
 218:	05010000 	streq	r0, [r1, #-0]
 21c:	00886003 	addeq	r6, r8, r3
 220:	79040e00 	stmdbvc	r4, {r9, sl, fp}
 224:	00000000 	andeq	r0, r0, r0
 228:	0000015e 	andeq	r0, r0, lr, asr r1
 22c:	00e70002 	rsceq	r0, r7, r2
 230:	01040000 	mrseq	r0, (UNDEF: 4)
 234:	00000027 	andeq	r0, r0, r7, lsr #32
 238:	00010001 	andeq	r0, r1, r1
 23c:	0000b500 	andeq	fp, r0, r0, lsl #10
 240:	0081a400 	addeq	sl, r1, r0, lsl #8
 244:	0082dc00 	addeq	sp, r2, r0, lsl #24
 248:	0000ec00 	andeq	lr, r0, r0, lsl #24
 24c:	6c660200 	sfmvs	f0, 2, [r6], #-0
 250:	03010800 	movweq	r0, #6144	; 0x1800
 254:	0000004d 	andeq	r0, r0, sp, asr #32
 258:	00013203 	andeq	r3, r1, r3, lsl #4
 25c:	4d040100 	stfmis	f0, [r4, #-0]
 260:	02000000 	andeq	r0, r0, #0
 264:	3f030023 	svccc	0x00030023
 268:	01000002 	tsteq	r0, r2
 26c:	00005305 	andeq	r5, r0, r5, lsl #6
 270:	04230200 	strteq	r0, [r3], #-512	; 0x200
 274:	25040400 	strcs	r0, [r4, #-1024]	; 0x400
 278:	05000000 	streq	r0, [r0, #-0]
 27c:	00420704 	subeq	r0, r2, r4, lsl #14
 280:	01060000 	mrseq	r0, (UNDEF: 6)
 284:	00000137 	andeq	r0, r0, r7, lsr r1
 288:	9f010c01 	svcls	0x00010c01
 28c:	a4000000 	strge	r0, [r0], #-0
 290:	58000081 	stmdapl	r0, {r0, r7}
 294:	a4000082 	strge	r0, [r0], #-130	; 0x82
 298:	01000000 	mrseq	r0, (UNDEF: 0)
 29c:	0000009f 	muleq	r0, pc, r0	; <UNPREDICTABLE>
 2a0:	00023f07 	andeq	r3, r2, r7, lsl #30
 2a4:	530c0100 	movwpl	r0, #49408	; 0xc100
 2a8:	02000000 	andeq	r0, r0, #0
 2ac:	66087491 			; <UNDEFINED> instruction: 0x66087491
 2b0:	4d0e0100 	stfmis	f0, [lr, #-0]
 2b4:	01000000 	mrseq	r0, (UNDEF: 0)
 2b8:	010b0954 	tsteq	fp, r4, asr r9
 2bc:	0e010000 	cdpeq	0, 0, cr0, cr1, cr0, {0}
 2c0:	000000a1 	andeq	r0, r0, r1, lsr #1
 2c4:	0a005501 	beq	156d0 <__bss_end+0xce6c>
 2c8:	4d040404 	cfstrsmi	mvf0, [r4, #-16]
 2cc:	0b000000 	bleq	2d4 <_start-0x7d2c>
 2d0:	00011901 	andeq	r1, r1, r1, lsl #18
 2d4:	01220100 	teqeq	r2, r0, lsl #2
 2d8:	00008258 	andeq	r8, r0, r8, asr r2
 2dc:	000082a0 	andeq	r8, r0, r0, lsr #5
 2e0:	000000d0 	ldrdeq	r0, [r0], -r0	; <UNPREDICTABLE>
 2e4:	0000e901 	andeq	lr, r0, r1, lsl #18
 2e8:	74700c00 	ldrbtvc	r0, [r0], #-3072	; 0xc00
 2ec:	22010072 	andcs	r0, r1, #114	; 0x72
 2f0:	0000009f 	muleq	r0, pc, r0	; <UNPREDICTABLE>
 2f4:	07749102 	ldrbeq	r9, [r4, -r2, lsl #2]!
 2f8:	0000023f 	andeq	r0, r0, pc, lsr r2
 2fc:	00532201 	subseq	r2, r3, r1, lsl #4
 300:	91020000 	mrsls	r0, (UNDEF: 2)
 304:	00660870 	rsbeq	r0, r6, r0, ror r8
 308:	004d2401 	subeq	r2, sp, r1, lsl #8
 30c:	54010000 	strpl	r0, [r1], #-0
 310:	46010b00 	strmi	r0, [r1], -r0, lsl #22
 314:	01000001 	tsteq	r0, r1
 318:	82a0012c 	adchi	r0, r0, #11
 31c:	82dc0000 	sbcshi	r0, ip, #0
 320:	00fc0000 	rscseq	r0, ip, r0
 324:	20010000 	andcs	r0, r1, r0
 328:	07000001 	streq	r0, [r0, -r1]
 32c:	00000127 	andeq	r0, r0, r7, lsr #2
 330:	01202c01 	teqeq	r0, r1, lsl #24
 334:	91020000 	mrsls	r0, (UNDEF: 2)
 338:	015f077c 	cmpeq	pc, ip, ror r7	; <UNPREDICTABLE>
 33c:	2c010000 	stccs	0, cr0, [r1], {-0}
 340:	00000053 	andeq	r0, r0, r3, asr r0
 344:	00789102 	rsbseq	r9, r8, r2, lsl #2
 348:	01260404 	teqeq	r6, r4, lsl #8
 34c:	01050000 	mrseq	r0, (UNDEF: 5)
 350:	00002208 	andeq	r2, r0, r8, lsl #4
 354:	6f740800 	svcvs	0x00740800
 358:	08010070 	stmdaeq	r1, {r4, r5, r6}
 35c:	00000120 	andeq	r0, r0, r0, lsr #2
 360:	88480305 	stmdahi	r8, {r0, r2, r8, r9}^
 364:	54090000 	strpl	r0, [r9], #-0
 368:	01000001 	tsteq	r0, r1
 36c:	00012009 	andeq	r2, r1, r9
 370:	4c030500 	cfstr32mi	mvfx0, [r3], {-0}
 374:	0d000088 	stceq	0, cr0, [r0, #-544]	; 0xfffffde0
 378:	00000110 	andeq	r0, r0, r0, lsl r1
 37c:	004d0601 	subeq	r0, sp, r1, lsl #12
 380:	05010000 	streq	r0, [r1, #-0]
 384:	00884403 	addeq	r4, r8, r3, lsl #8
 388:	00b80000 	adcseq	r0, r8, r0
 38c:	00020000 	andeq	r0, r2, r0
 390:	000001b7 			; <UNDEFINED> instruction: 0x000001b7
 394:	00270104 	eoreq	r0, r7, r4, lsl #2
 398:	69010000 	stmdbvs	r1, {}	; <UNPREDICTABLE>
 39c:	b5000001 	strlt	r0, [r0, #-1]
 3a0:	dc000000 	stcle	0, cr0, [r0], {-0}
 3a4:	18000082 	stmdane	r0, {r1, r7}
 3a8:	49000084 	stmdbmi	r0, {r2, r7}
 3ac:	02000001 	andeq	r0, r0, #1
 3b0:	00830702 	addeq	r0, r3, r2, lsl #14
 3b4:	04020000 	streq	r0, [r2], #-0
 3b8:	00004207 	andeq	r4, r0, r7, lsl #4
 3bc:	08010200 	stmdaeq	r1, {r9}
 3c0:	00000019 	andeq	r0, r0, r9, lsl r0
 3c4:	01750103 	cmneq	r5, r3, lsl #2
 3c8:	1c010000 	stcne	0, cr0, [r1], {-0}
 3cc:	000082dc 	ldrdeq	r8, [r0], -ip
 3d0:	00008328 	andeq	r8, r0, r8, lsr #6
 3d4:	0000011c 	andeq	r0, r0, ip, lsl r1
 3d8:	00006101 	andeq	r6, r0, r1, lsl #2
 3dc:	78720400 	ldmdavc	r2!, {sl}^
 3e0:	2c1e0100 	ldfcss	f0, [lr], {-0}
 3e4:	02000000 	andeq	r0, r0, #0
 3e8:	05007491 	streq	r7, [r0, #-1169]	; 0x491
 3ec:	00019701 	andeq	r9, r1, r1, lsl #14
 3f0:	282b0100 	stmdacs	fp!, {r8}
 3f4:	40000083 	andmi	r0, r0, r3, lsl #1
 3f8:	48000083 	stmdami	r0, {r0, r1, r7}
 3fc:	01000001 	tsteq	r0, r1
 400:	016e0105 	cmneq	lr, r5, lsl #2
 404:	31010000 	mrscc	r0, (UNDEF: 1)
 408:	00008340 	andeq	r8, r0, r0, asr #6
 40c:	00008358 	andeq	r8, r0, r8, asr r3
 410:	00000168 	andeq	r0, r0, r8, ror #2
 414:	8f010601 	svchi	0x00010601
 418:	01000001 	tsteq	r0, r1
 41c:	0083583a 	addeq	r5, r3, sl, lsr r8
 420:	00841800 	addeq	r1, r4, r0, lsl #16
 424:	00018800 	andeq	r8, r1, r0, lsl #16
 428:	72040100 	andvc	r0, r4, #0
 42c:	3c010061 	stccc	0, cr0, [r1], {97}	; 0x61
 430:	0000002c 	andeq	r0, r0, ip, lsr #32
 434:	04749102 	ldrbteq	r9, [r4], #-258	; 0x102
 438:	01007872 	tsteq	r0, r2, ror r8
 43c:	00002c3d 	andeq	r2, r0, sp, lsr ip
 440:	70910200 	addsvc	r0, r1, r0, lsl #4
 444:	030c0000 	movweq	r0, #49152	; 0xc000
 448:	00020000 	andeq	r0, r2, r0
 44c:	00000229 	andeq	r0, r0, r9, lsr #4
 450:	00270104 	eoreq	r0, r7, r4, lsl #2
 454:	b9010000 	stmdblt	r1, {}	; <UNPREDICTABLE>
 458:	b5000001 	strlt	r0, [r0, #-1]
 45c:	18000000 	stmdane	r0, {}	; <UNPREDICTABLE>
 460:	44000084 	strmi	r0, [r0], #-132	; 0x84
 464:	98000088 	stmdals	r0, {r3, r7}
 468:	02000001 	andeq	r0, r0, #1
 46c:	00420704 	subeq	r0, r2, r4, lsl #14
 470:	01020000 	mrseq	r0, (UNDEF: 2)
 474:	00001b06 	andeq	r1, r0, r6, lsl #22
 478:	08010200 	stmdaeq	r1, {r9}
 47c:	00000019 	andeq	r0, r0, r9, lsl r0
 480:	9f050202 	svcls	0x00050202
 484:	02000000 	andeq	r0, r0, #0
 488:	00830702 	addeq	r0, r3, r2, lsl #14
 48c:	04030000 	streq	r0, [r3], #-0
 490:	746e6905 	strbtvc	r6, [lr], #-2309	; 0x905
 494:	05080200 	streq	r0, [r8, #-512]	; 0x200
 498:	00000000 	andeq	r0, r0, r0
 49c:	38070802 	stmdacc	r7, {r1, fp}
 4a0:	02000000 	andeq	r0, r0, #0
 4a4:	00050504 	andeq	r0, r5, r4, lsl #10
 4a8:	04020000 	streq	r0, [r2], #-0
 4ac:	0000f707 	andeq	pc, r0, r7, lsl #14
 4b0:	02040400 	andeq	r0, r4, #0
 4b4:	003d0704 	eorseq	r0, sp, r4, lsl #14
 4b8:	01050000 	mrseq	r0, (UNDEF: 5)
 4bc:	00740406 	rsbseq	r0, r4, r6, lsl #8
 4c0:	01020000 	mrseq	r0, (UNDEF: 2)
 4c4:	00002208 	andeq	r2, r0, r8, lsl #4
 4c8:	02160700 	andseq	r0, r6, #0
 4cc:	05020000 	streq	r0, [r2, #-0]
 4d0:	00000076 	andeq	r0, r0, r6, ror r0
 4d4:	00006608 	andeq	r6, r0, r8, lsl #12
 4d8:	07020800 	streq	r0, [r2, -r0, lsl #16]
 4dc:	000000b5 	strheq	r0, [r0], -r5
 4e0:	00707309 	rsbseq	r7, r0, r9, lsl #6
 4e4:	00250902 	eoreq	r0, r5, r2, lsl #18
 4e8:	23020000 	movwcs	r0, #8192	; 0x2000
 4ec:	726c0900 	rsbvc	r0, ip, #0
 4f0:	250a0200 	strcs	r0, [sl, #-512]	; 0x200
 4f4:	02000000 	andeq	r0, r0, #0
 4f8:	0a000423 	beq	158c <_start-0x6a74>
 4fc:	00000264 	andeq	r0, r0, r4, ror #4
 500:	e0150201 	ands	r0, r5, r1, lsl #4
 504:	0b000000 	bleq	50c <_start-0x7af4>
 508:	0057454e 	subseq	r4, r7, lr, asr #10
 50c:	021d0c00 	andseq	r0, sp, #0
 510:	0c010000 	stceq	0, cr0, [r1], {-0}
 514:	0000028c 	andeq	r0, r0, ip, lsl #5
 518:	01b10c02 			; <UNDEFINED> instruction: 0x01b10c02
 51c:	0c030000 	stceq	0, cr0, [r3], {-0}
 520:	00000294 	muleq	r0, r4, r2
 524:	c1080004 	tstgt	r8, r4
 528:	1c000001 	stcne	0, cr0, [r0], {1}
 52c:	014e1602 	cmpeq	lr, r2, lsl #12
 530:	c70d0000 	strgt	r0, [sp, -r0]
 534:	02000001 	andeq	r0, r0, #1
 538:	00002518 	andeq	r2, r0, r8, lsl r5
 53c:	00230200 	eoreq	r0, r3, r0, lsl #4
 540:	0002020d 	andeq	r0, r2, sp, lsl #4
 544:	b5190200 	ldrlt	r0, [r9, #-512]	; 0x200
 548:	02000000 	andeq	r0, r0, #0
 54c:	73090423 	movwvc	r0, #37923	; 0x9423
 550:	1a020070 	bne	80718 <__bss_end+0x77eb4>
 554:	00000025 	andeq	r0, r0, r5, lsr #32
 558:	0d082302 	stceq	3, cr2, [r8, #-8]
 55c:	0000019f 	muleq	r0, pc, r1	; <UNPREDICTABLE>
 560:	00251b02 	eoreq	r1, r5, r2, lsl #22
 564:	23020000 	movwcs	r0, #8192	; 0x2000
 568:	029f0d0c 	addseq	r0, pc, #768	; 0x300
 56c:	1d020000 	stcne	0, cr0, [r2, #-0]
 570:	00000083 	andeq	r0, r0, r3, lsl #1
 574:	0d102302 	ldceq	3, cr2, [r0, #-8]
 578:	000001d2 	ldrdeq	r0, [r0], -r2
 57c:	006b1e02 	rsbeq	r1, fp, r2, lsl #28
 580:	23020000 	movwcs	r0, #8192	; 0x2000
 584:	02230d14 	eoreq	r0, r3, #1280	; 0x500
 588:	20020000 	andcs	r0, r2, r0
 58c:	0000014e 	andeq	r0, r0, lr, asr #2
 590:	00182302 	andseq	r2, r8, r2, lsl #6
 594:	00e00406 	rsceq	r0, r0, r6, lsl #8
 598:	010e0000 	mrseq	r0, (UNDEF: 14)
 59c:	00000274 	andeq	r0, r0, r4, ror r2
 5a0:	18010601 	stmdane	r1, {r0, r9, sl}
 5a4:	b0000084 	andlt	r0, r0, r4, lsl #1
 5a8:	b4000084 	strlt	r0, [r0], #-132	; 0x84
 5ac:	01000001 	tsteq	r0, r1
 5b0:	000001c5 	andeq	r0, r0, r5, asr #3
 5b4:	6263700f 	rsbvs	r7, r3, #15
 5b8:	4e060100 	adfmis	f0, f6, f0
 5bc:	02000001 	andeq	r0, r0, #1
 5c0:	660f7491 			; <UNDEFINED> instruction: 0x660f7491
 5c4:	83060100 	movwhi	r0, #24832	; 0x6100
 5c8:	02000000 	andeq	r0, r0, #0
 5cc:	5f107091 	svcpl	0x00107091
 5d0:	01000002 	tsteq	r0, r2
 5d4:	00006b06 	andeq	r6, r0, r6, lsl #22
 5d8:	6c910200 	lfmvs	f0, 4, [r1], {0}
 5dc:	00023910 	andeq	r3, r2, r0, lsl r9
 5e0:	25060100 	strcs	r0, [r6, #-256]	; 0x100
 5e4:	02000000 	andeq	r0, r0, #0
 5e8:	30116891 	mulscc	r1, r1, r8
 5ec:	01000002 	tsteq	r0, r2
 5f0:	00004807 	andeq	r4, r0, r7, lsl #16
 5f4:	5c030500 	cfstr32pl	mvfx0, [r3], {-0}
 5f8:	12000088 	andne	r0, r0, #136	; 0x88
 5fc:	00013701 	andeq	r3, r1, r1, lsl #14
 600:	48120100 	ldmdami	r2, {r8}
 604:	01000000 	mrseq	r0, (UNDEF: 0)
 608:	14000013 	strne	r0, [r0], #-19
 60c:	00027d01 	andeq	r7, r2, r1, lsl #26
 610:	01150100 	tsteq	r5, r0, lsl #2
 614:	00000048 	andeq	r0, r0, r8, asr #32
 618:	000084b0 			; <UNDEFINED> instruction: 0x000084b0
 61c:	00008584 	andeq	r8, r0, r4, lsl #11
 620:	000001e0 	andeq	r0, r0, r0, ror #3
 624:	00022901 	andeq	r2, r2, r1, lsl #18
 628:	00660f00 	rsbeq	r0, r6, r0, lsl #30
 62c:	00831501 	addeq	r1, r3, r1, lsl #10
 630:	91020000 	mrsls	r0, (UNDEF: 2)
 634:	025f106c 	subseq	r1, pc, #108	; 0x6c
 638:	15010000 	strne	r0, [r1, #-0]
 63c:	0000006b 	andeq	r0, r0, fp, rrx
 640:	10689102 	rsbne	r9, r8, r2, lsl #2
 644:	00000239 	andeq	r0, r0, r9, lsr r2
 648:	00251501 	eoreq	r1, r5, r1, lsl #10
 64c:	91020000 	mrsls	r0, (UNDEF: 2)
 650:	63701564 	cmnvs	r0, #419430400	; 0x19000000
 654:	17010062 	strne	r0, [r1, -r2, rrx]
 658:	0000014e 	andeq	r0, r0, lr, asr #2
 65c:	12749102 	rsbsne	r9, r4, #-2147483648	; 0x80000000
 660:	00013701 	andeq	r3, r1, r1, lsl #14
 664:	48120100 	ldmdami	r2, {r8}
 668:	01000000 	mrseq	r0, (UNDEF: 0)
 66c:	16000013 			; <UNDEFINED> instruction: 0x16000013
 670:	00021001 	andeq	r1, r2, r1
 674:	842b0100 	strthi	r0, [fp], #-256	; 0x100
 678:	70000085 	andvc	r0, r0, r5, lsl #1
 67c:	0c000086 	stceq	0, cr0, [r0], {134}	; 0x86
 680:	01000002 	tsteq	r0, r2
 684:	00000286 	andeq	r0, r0, r6, lsl #5
 688:	62637015 	rsbvs	r7, r3, #21
 68c:	4e2d0100 	sufmie	f0, f5, f0
 690:	02000001 	andeq	r0, r0, #1
 694:	a6117491 			; <UNDEFINED> instruction: 0xa6117491
 698:	01000001 	tsteq	r0, r1
 69c:	00004839 	andeq	r4, r0, r9, lsr r8
 6a0:	70910200 	addsvc	r0, r1, r0, lsl #4
 6a4:	00861417 	addeq	r1, r6, r7, lsl r4
 6a8:	00864000 	addeq	r4, r6, r0
 6ac:	01d91100 	bicseq	r1, r9, r0, lsl #2
 6b0:	3d010000 	stccc	0, cr0, [r1, #-0]
 6b4:	0000014e 	andeq	r0, r0, lr, asr #2
 6b8:	126c9102 	rsbne	r9, ip, #-2147483648	; 0x80000000
 6bc:	00011901 	andeq	r1, r1, r1, lsl #18
 6c0:	48400100 	stmdami	r0, {r8}^
 6c4:	01000000 	mrseq	r0, (UNDEF: 0)
 6c8:	00000013 	andeq	r0, r0, r3, lsl r0
 6cc:	00770118 	rsbseq	r0, r7, r8, lsl r1
 6d0:	4c010000 	stcmi	0, cr0, [r1], {-0}
 6d4:	00008670 	andeq	r8, r0, r0, ror r6
 6d8:	000086a8 	andeq	r8, r0, r8, lsr #13
 6dc:	00000238 	andeq	r0, r0, r8, lsr r2
 6e0:	de011801 	cdple	8, 0, cr1, cr1, cr1, {0}
 6e4:	01000001 	tsteq	r0, r1
 6e8:	0086a853 	addeq	sl, r6, r3, asr r8
 6ec:	00879400 	addeq	r9, r7, r0, lsl #8
 6f0:	00025800 	andeq	r5, r2, r0, lsl #16
 6f4:	01190100 	tsteq	r9, r0, lsl #2
 6f8:	0000006c 	andeq	r0, r0, ip, rrx
 6fc:	87947a01 	ldrhi	r7, [r4, r1, lsl #20]
 700:	88440000 	stmdahi	r4, {}^	; <UNPREDICTABLE>
 704:	7d020000 	stcvc	0, cr0, [r2, #-0]
 708:	44110100 	ldrmi	r0, [r1], #-256	; 0x100
 70c:	01000002 	tsteq	r0, r2
 710:	00014e02 	andeq	r4, r1, r2, lsl #28
 714:	50030500 	andpl	r0, r3, r0, lsl #10
 718:	11000088 	smlabbne	r0, r8, r0, r0
 71c:	00000252 	andeq	r0, r0, r2, asr r2
 720:	014e0301 	cmpeq	lr, r1, lsl #6
 724:	03050000 	movweq	r0, #20480	; 0x5000
 728:	00008854 	andeq	r8, r0, r4, asr r8
 72c:	0001f211 	andeq	pc, r1, r1, lsl r2	; <UNPREDICTABLE>
 730:	4e040100 	adfmis	f0, f4, f0
 734:	05000001 	streq	r0, [r0, #-1]
 738:	00885803 	addeq	r5, r8, r3, lsl #16
 73c:	00a91a00 	adceq	r1, r9, r0, lsl #20
 740:	0d020000 	stceq	0, cr0, [r2, #-0]
 744:	00000309 	andeq	r0, r0, r9, lsl #6
 748:	60030501 	andvs	r0, r3, r1, lsl #10
 74c:	06000088 	streq	r0, [r0], -r8, lsl #1
 750:	00008e04 	andeq	r8, r0, r4, lsl #28
	...

Disassembly of section .debug_abbrev:

00000000 <.debug_abbrev>:
   0:	10001101 	andne	r1, r0, r1, lsl #2
   4:	12011106 	andne	r1, r1, #-2147483647	; 0x80000001
   8:	1b080301 	blne	200c14 <__bss_end+0x1f83b0>
   c:	13082508 	movwne	r2, #34056	; 0x8508
  10:	00000005 	andeq	r0, r0, r5
  14:	25011101 	strcs	r1, [r1, #-257]	; 0x101
  18:	030b130e 	movweq	r1, #45838	; 0xb30e
  1c:	110e1b0e 	tstne	lr, lr, lsl #22
  20:	10011201 	andne	r1, r1, r1, lsl #4
  24:	02000006 	andeq	r0, r0, #6
  28:	0b0b0024 	bleq	2c00c0 <__bss_end+0x2b785c>
  2c:	0e030b3e 	vmoveq.16	d3[0], r0
  30:	24030000 	strcs	r0, [r3], #-0
  34:	3e0b0b00 	vmlacc.f64	d0, d11, d0
  38:	0008030b 	andeq	r0, r8, fp, lsl #6
  3c:	01130400 	tsteq	r3, r0, lsl #8
  40:	0b0b0e03 	bleq	2c3854 <__bss_end+0x2baff0>
  44:	0b3b0b3a 	bleq	ec2d34 <__bss_end+0xeba4d0>
  48:	00001301 	andeq	r1, r0, r1, lsl #6
  4c:	03000d05 	movweq	r0, #3333	; 0xd05
  50:	3b0b3a08 	blcc	2ce878 <__bss_end+0x2c6014>
  54:	3813490b 	ldmdacc	r3, {r0, r1, r3, r8, fp, lr}
  58:	0600000a 	streq	r0, [r0], -sl
  5c:	0c3f012e 	ldfeqs	f0, [pc], #-184	; ffffffac <__bss_end+0xffff7748>
  60:	0b3a0e03 	bleq	e83874 <__bss_end+0xe7b010>
  64:	01110b3b 	tsteq	r1, fp, lsr fp
  68:	06400112 			; <UNDEFINED> instruction: 0x06400112
  6c:	010c4296 			; <UNDEFINED> instruction: 0x010c4296
  70:	07000013 	smladeq	r0, r3, r0, r0
  74:	0e030034 	mcreq	0, 0, r0, cr3, cr4, {1}
  78:	0b3b0b3a 	bleq	ec2d68 <__bss_end+0xeba504>
  7c:	0a021349 	beq	84da8 <__bss_end+0x7c544>
  80:	0b080000 	bleq	200088 <__bss_end+0x1f7824>
  84:	12011101 	andne	r1, r1, #1073741824	; 0x40000000
  88:	09000001 	stmdbeq	r0, {r0}
  8c:	0c3f012e 	ldfeqs	f0, [pc], #-184	; ffffffdc <__bss_end+0xffff7778>
  90:	0b3a0e03 	bleq	e838a4 <__bss_end+0xe7b040>
  94:	13490b3b 	movtne	r0, #39739	; 0x9b3b
  98:	00000c3c 	andeq	r0, r0, ip, lsr ip
  9c:	0000180a 	andeq	r1, r0, sl, lsl #16
  a0:	00340b00 	eorseq	r0, r4, r0, lsl #22
  a4:	0b3a0803 	bleq	e820b8 <__bss_end+0xe79854>
  a8:	13490b3b 	movtne	r0, #39739	; 0x9b3b
  ac:	00000a02 	andeq	r0, r0, r2, lsl #20
  b0:	3f012e0c 	svccc	0x00012e0c
  b4:	3a0e030c 	bcc	380cec <__bss_end+0x378488>
  b8:	270b3b0b 	strcs	r3, [fp, -fp, lsl #22]
  bc:	1113490c 	tstne	r3, ip, lsl #18
  c0:	40011201 	andmi	r1, r1, r1, lsl #4
  c4:	0c429606 	mcrreq	6, 0, r9, r2, cr6
  c8:	00001301 	andeq	r1, r0, r1, lsl #6
  cc:	0300340d 	movweq	r3, #1037	; 0x40d
  d0:	3b0b3a0e 	blcc	2ce910 <__bss_end+0x2c60ac>
  d4:	3f13490b 	svccc	0x0013490b
  d8:	000a020c 	andeq	r0, sl, ip, lsl #4
  dc:	000f0e00 	andeq	r0, pc, r0, lsl #28
  e0:	13490b0b 	movtne	r0, #39691	; 0x9b0b
  e4:	01000000 	mrseq	r0, (UNDEF: 0)
  e8:	0e250111 	mcreq	1, 1, r0, cr5, cr1, {0}
  ec:	0e030b13 	vmoveq.32	d3[0], r0
  f0:	01110e1b 	tsteq	r1, fp, lsl lr
  f4:	06100112 			; <UNDEFINED> instruction: 0x06100112
  f8:	13020000 	movwne	r0, #8192	; 0x2000
  fc:	0b080301 	bleq	200d08 <__bss_end+0x1f84a4>
 100:	3b0b3a0b 	blcc	2ce934 <__bss_end+0x2c60d0>
 104:	0013010b 	andseq	r0, r3, fp, lsl #2
 108:	000d0300 	andeq	r0, sp, r0, lsl #6
 10c:	0b3a0e03 	bleq	e83920 <__bss_end+0xe7b0bc>
 110:	13490b3b 	movtne	r0, #39739	; 0x9b3b
 114:	00000a38 	andeq	r0, r0, r8, lsr sl
 118:	0b000f04 	bleq	3d30 <_start-0x42d0>
 11c:	0013490b 	andseq	r4, r3, fp, lsl #18
 120:	00240500 	eoreq	r0, r4, r0, lsl #10
 124:	0b3e0b0b 	bleq	f82d58 <__bss_end+0xf7a4f4>
 128:	00000e03 	andeq	r0, r0, r3, lsl #28
 12c:	3f012e06 	svccc	0x00012e06
 130:	3a0e030c 	bcc	380d68 <__bss_end+0x378504>
 134:	270b3b0b 	strcs	r3, [fp, -fp, lsl #22]
 138:	1113490c 	tstne	r3, ip, lsl #18
 13c:	40011201 	andmi	r1, r1, r1, lsl #4
 140:	0c429706 	mcrreq	7, 0, r9, r2, cr6
 144:	00001301 	andeq	r1, r0, r1, lsl #6
 148:	03000507 	movweq	r0, #1287	; 0x507
 14c:	3b0b3a0e 	blcc	2ce98c <__bss_end+0x2c6128>
 150:	0213490b 	andseq	r4, r3, #180224	; 0x2c000
 154:	0800000a 	stmdaeq	r0, {r1, r3}
 158:	08030034 	stmdaeq	r3, {r2, r4, r5}
 15c:	0b3b0b3a 	bleq	ec2e4c <__bss_end+0xeba5e8>
 160:	0a021349 	beq	84e8c <__bss_end+0x7c628>
 164:	34090000 	strcc	r0, [r9], #-0
 168:	3a0e0300 	bcc	380d70 <__bss_end+0x37850c>
 16c:	490b3b0b 	stmdbmi	fp, {r0, r1, r3, r8, r9, fp, ip, sp}
 170:	000a0213 	andeq	r0, sl, r3, lsl r2
 174:	000f0a00 	andeq	r0, pc, r0, lsl #20
 178:	00000b0b 	andeq	r0, r0, fp, lsl #22
 17c:	3f012e0b 	svccc	0x00012e0b
 180:	3a0e030c 	bcc	380db8 <__bss_end+0x378554>
 184:	270b3b0b 	strcs	r3, [fp, -fp, lsl #22]
 188:	1201110c 	andne	r1, r1, #3
 18c:	97064001 	strls	r4, [r6, -r1]
 190:	13010c42 	movwne	r0, #7234	; 0x1c42
 194:	050c0000 	streq	r0, [ip, #-0]
 198:	3a080300 	bcc	200da0 <__bss_end+0x1f853c>
 19c:	490b3b0b 	stmdbmi	fp, {r0, r1, r3, r8, r9, fp, ip, sp}
 1a0:	000a0213 	andeq	r0, sl, r3, lsl r2
 1a4:	00340d00 	eorseq	r0, r4, r0, lsl #26
 1a8:	0b3a0e03 	bleq	e839bc <__bss_end+0xe7b158>
 1ac:	13490b3b 	movtne	r0, #39739	; 0x9b3b
 1b0:	0a020c3f 	beq	832b4 <__bss_end+0x7aa50>
 1b4:	01000000 	mrseq	r0, (UNDEF: 0)
 1b8:	0e250111 	mcreq	1, 1, r0, cr5, cr1, {0}
 1bc:	0e030b13 	vmoveq.32	d3[0], r0
 1c0:	01110e1b 	tsteq	r1, fp, lsl lr
 1c4:	06100112 			; <UNDEFINED> instruction: 0x06100112
 1c8:	24020000 	strcs	r0, [r2], #-0
 1cc:	3e0b0b00 	vmlacc.f64	d0, d11, d0
 1d0:	000e030b 	andeq	r0, lr, fp, lsl #6
 1d4:	012e0300 	teqeq	lr, r0, lsl #6
 1d8:	0e030c3f 	mcreq	12, 0, r0, cr3, cr15, {1}
 1dc:	0b3b0b3a 	bleq	ec2ecc <__bss_end+0xeba668>
 1e0:	01120111 	tsteq	r2, r1, lsl r1
 1e4:	42960640 	addsmi	r0, r6, #67108864	; 0x4000000
 1e8:	0013010c 	andseq	r0, r3, ip, lsl #2
 1ec:	00340400 	eorseq	r0, r4, r0, lsl #8
 1f0:	0b3a0803 	bleq	e82204 <__bss_end+0xe799a0>
 1f4:	13490b3b 	movtne	r0, #39739	; 0x9b3b
 1f8:	00000a02 	andeq	r0, r0, r2, lsl #20
 1fc:	3f002e05 	svccc	0x00002e05
 200:	3a0e030c 	bcc	380e38 <__bss_end+0x3785d4>
 204:	110b3b0b 	tstne	fp, fp, lsl #22
 208:	40011201 	andmi	r1, r1, r1, lsl #4
 20c:	0c429606 	mcrreq	6, 0, r9, r2, cr6
 210:	2e060000 	cdpcs	0, 0, cr0, cr6, cr0, {0}
 214:	030c3f01 	movweq	r3, #52993	; 0xcf01
 218:	3b0b3a0e 	blcc	2cea58 <__bss_end+0x2c61f4>
 21c:	1201110b 	andne	r1, r1, #-1073741822	; 0xc0000002
 220:	96064001 	strls	r4, [r6], -r1
 224:	00000c42 	andeq	r0, r0, r2, asr #24
 228:	01110100 	tsteq	r1, r0, lsl #2
 22c:	0b130e25 	bleq	4c3ac8 <__bss_end+0x4bb264>
 230:	0e1b0e03 	cdpeq	14, 1, cr0, cr11, cr3, {0}
 234:	01120111 	tsteq	r2, r1, lsl r1
 238:	00000610 	andeq	r0, r0, r0, lsl r6
 23c:	0b002402 	bleq	924c <__bss_end+0x9e8>
 240:	030b3e0b 	movweq	r3, #48651	; 0xbe0b
 244:	0300000e 	movweq	r0, #14
 248:	0b0b0024 	bleq	2c02e0 <__bss_end+0x2b7a7c>
 24c:	08030b3e 	stmdaeq	r3, {r1, r2, r3, r4, r5, r8, r9, fp}
 250:	0f040000 	svceq	0x00040000
 254:	000b0b00 	andeq	r0, fp, r0, lsl #22
 258:	00150500 	andseq	r0, r5, r0, lsl #10
 25c:	00000c27 	andeq	r0, r0, r7, lsr #24
 260:	0b000f06 	bleq	3e80 <_start-0x4180>
 264:	0013490b 	andseq	r4, r3, fp, lsl #18
 268:	00160700 	andseq	r0, r6, r0, lsl #14
 26c:	0b3a0e03 	bleq	e83a80 <__bss_end+0xe7b21c>
 270:	13490b3b 	movtne	r0, #39739	; 0x9b3b
 274:	13080000 	movwne	r0, #32768	; 0x8000
 278:	0b0e0301 	bleq	380e84 <__bss_end+0x378620>
 27c:	3b0b3a0b 	blcc	2ceab0 <__bss_end+0x2c624c>
 280:	0013010b 	andseq	r0, r3, fp, lsl #2
 284:	000d0900 	andeq	r0, sp, r0, lsl #18
 288:	0b3a0803 	bleq	e8229c <__bss_end+0xe79a38>
 28c:	13490b3b 	movtne	r0, #39739	; 0x9b3b
 290:	00000a38 	andeq	r0, r0, r8, lsr sl
 294:	0301040a 	movweq	r0, #5130	; 0x140a
 298:	3a0b0b0e 	bcc	2c2ed8 <__bss_end+0x2ba674>
 29c:	010b3b0b 	tsteq	fp, fp, lsl #22
 2a0:	0b000013 	bleq	2f4 <_start-0x7d0c>
 2a4:	08030028 	stmdaeq	r3, {r3, r5}
 2a8:	00000d1c 	andeq	r0, r0, ip, lsl sp
 2ac:	0300280c 	movweq	r2, #2060	; 0x80c
 2b0:	000d1c0e 	andeq	r1, sp, lr, lsl #24
 2b4:	000d0d00 	andeq	r0, sp, r0, lsl #26
 2b8:	0b3a0e03 	bleq	e83acc <__bss_end+0xe7b268>
 2bc:	13490b3b 	movtne	r0, #39739	; 0x9b3b
 2c0:	00000a38 	andeq	r0, r0, r8, lsr sl
 2c4:	3f012e0e 	svccc	0x00012e0e
 2c8:	3a0e030c 	bcc	380f00 <__bss_end+0x37869c>
 2cc:	270b3b0b 	strcs	r3, [fp, -fp, lsl #22]
 2d0:	1201110c 	andne	r1, r1, #3
 2d4:	96064001 	strls	r4, [r6], -r1
 2d8:	13010c42 	movwne	r0, #7234	; 0x1c42
 2dc:	050f0000 	streq	r0, [pc, #-0]	; 2e4 <_start-0x7d1c>
 2e0:	3a080300 	bcc	200ee8 <__bss_end+0x1f8684>
 2e4:	490b3b0b 	stmdbmi	fp, {r0, r1, r3, r8, r9, fp, ip, sp}
 2e8:	000a0213 	andeq	r0, sl, r3, lsl r2
 2ec:	00051000 	andeq	r1, r5, r0
 2f0:	0b3a0e03 	bleq	e83b04 <__bss_end+0xe7b2a0>
 2f4:	13490b3b 	movtne	r0, #39739	; 0x9b3b
 2f8:	00000a02 	andeq	r0, r0, r2, lsl #20
 2fc:	03003411 	movweq	r3, #1041	; 0x411
 300:	3b0b3a0e 	blcc	2ceb40 <__bss_end+0x2c62dc>
 304:	0213490b 	andseq	r4, r3, #180224	; 0x2c000
 308:	1200000a 	andne	r0, r0, #10
 30c:	0c3f012e 	ldfeqs	f0, [pc], #-184	; 25c <_start-0x7da4>
 310:	0b3a0e03 	bleq	e83b24 <__bss_end+0xe7b2c0>
 314:	13490b3b 	movtne	r0, #39739	; 0x9b3b
 318:	00000c3c 	andeq	r0, r0, ip, lsr ip
 31c:	00001813 	andeq	r1, r0, r3, lsl r8
 320:	012e1400 	teqeq	lr, r0, lsl #8
 324:	0e030c3f 	mcreq	12, 0, r0, cr3, cr15, {1}
 328:	0b3b0b3a 	bleq	ec3018 <__bss_end+0xeba7b4>
 32c:	13490c27 	movtne	r0, #39975	; 0x9c27
 330:	01120111 	tsteq	r2, r1, lsl r1
 334:	42960640 	addsmi	r0, r6, #67108864	; 0x4000000
 338:	0013010c 	andseq	r0, r3, ip, lsl #2
 33c:	00341500 	eorseq	r1, r4, r0, lsl #10
 340:	0b3a0803 	bleq	e82354 <__bss_end+0xe79af0>
 344:	13490b3b 	movtne	r0, #39739	; 0x9b3b
 348:	00000a02 	andeq	r0, r0, r2, lsl #20
 34c:	3f012e16 	svccc	0x00012e16
 350:	3a0e030c 	bcc	380f88 <__bss_end+0x378724>
 354:	110b3b0b 	tstne	fp, fp, lsl #22
 358:	40011201 	andmi	r1, r1, r1, lsl #4
 35c:	0c429606 	mcrreq	6, 0, r9, r2, cr6
 360:	00001301 	andeq	r1, r0, r1, lsl #6
 364:	11010b17 	tstne	r1, r7, lsl fp
 368:	00011201 	andeq	r1, r1, r1, lsl #4
 36c:	002e1800 	eoreq	r1, lr, r0, lsl #16
 370:	0e030c3f 	mcreq	12, 0, r0, cr3, cr15, {1}
 374:	0b3b0b3a 	bleq	ec3064 <__bss_end+0xeba800>
 378:	01120111 	tsteq	r2, r1, lsl r1
 37c:	42960640 	addsmi	r0, r6, #67108864	; 0x4000000
 380:	1900000c 	stmdbne	r0, {r2, r3}
 384:	0c3f002e 	ldceq	0, cr0, [pc], #-184	; 2d4 <_start-0x7d2c>
 388:	0b3a0e03 	bleq	e83b9c <__bss_end+0xe7b338>
 38c:	01110b3b 	tsteq	r1, fp, lsr fp
 390:	0a400112 	beq	10007e0 <__bss_end+0xff7f7c>
 394:	000c4296 	muleq	ip, r6, r2
 398:	00341a00 	eorseq	r1, r4, r0, lsl #20
 39c:	0b3a0e03 	bleq	e83bb0 <__bss_end+0xe7b34c>
 3a0:	13490b3b 	movtne	r0, #39739	; 0x9b3b
 3a4:	0a020c3f 	beq	834a8 <__bss_end+0x7ac44>
 3a8:	Address 0x00000000000003a8 is out of bounds.


Disassembly of section .debug_aranges:

00000000 <.debug_aranges>:
   0:	0000001c 	andeq	r0, r0, ip, lsl r0
   4:	00000002 	andeq	r0, r0, r2
   8:	00040000 	andeq	r0, r4, r0
   c:	00000000 	andeq	r0, r0, r0
  10:	00008000 	andeq	r8, r0, r0
  14:	000000d0 	ldrdeq	r0, [r0], -r0	; <UNPREDICTABLE>
	...
  20:	0000001c 	andeq	r0, r0, ip, lsl r0
  24:	00720002 	rsbseq	r0, r2, r2
  28:	00040000 	andeq	r0, r4, r0
  2c:	00000000 	andeq	r0, r0, r0
  30:	000080d0 	ldrdeq	r8, [r0], -r0
  34:	000000d4 	ldrdeq	r0, [r0], -r4
	...
  40:	0000001c 	andeq	r0, r0, ip, lsl r0
  44:	02280002 	eoreq	r0, r8, #2
  48:	00040000 	andeq	r0, r4, r0
  4c:	00000000 	andeq	r0, r0, r0
  50:	000081a4 	andeq	r8, r0, r4, lsr #3
  54:	00000138 	andeq	r0, r0, r8, lsr r1
	...
  60:	0000001c 	andeq	r0, r0, ip, lsl r0
  64:	038a0002 	orreq	r0, sl, #2
  68:	00040000 	andeq	r0, r4, r0
  6c:	00000000 	andeq	r0, r0, r0
  70:	000082dc 	ldrdeq	r8, [r0], -ip
  74:	0000013c 	andeq	r0, r0, ip, lsr r1
	...
  80:	0000001c 	andeq	r0, r0, ip, lsl r0
  84:	04460002 	strbeq	r0, [r6], #-2
  88:	00040000 	andeq	r0, r4, r0
  8c:	00000000 	andeq	r0, r0, r0
  90:	00008418 	andeq	r8, r0, r8, lsl r4
  94:	0000042c 	andeq	r0, r0, ip, lsr #8
	...

Disassembly of section .debug_loc:

00000000 <.debug_loc>:
   0:	00000000 	andeq	r0, r0, r0
   4:	00000004 	andeq	r0, r0, r4
   8:	007d0002 	rsbseq	r0, sp, r2
   c:	00000004 	andeq	r0, r0, r4
  10:	00000008 	andeq	r0, r0, r8
  14:	047d0002 	ldrbteq	r0, [sp], #-2
  18:	00000008 	andeq	r0, r0, r8
  1c:	00000024 	andeq	r0, r0, r4, lsr #32
  20:	107d0002 	rsbsne	r0, sp, r2
	...
  2c:	00000024 	andeq	r0, r0, r4, lsr #32
  30:	00000028 	andeq	r0, r0, r8, lsr #32
  34:	007d0002 	rsbseq	r0, sp, r2
  38:	00000028 	andeq	r0, r0, r8, lsr #32
  3c:	0000002c 	andeq	r0, r0, ip, lsr #32
  40:	047d0002 	ldrbteq	r0, [sp], #-2
  44:	0000002c 	andeq	r0, r0, ip, lsr #32
  48:	00000048 	andeq	r0, r0, r8, asr #32
  4c:	107d0002 	rsbsne	r0, sp, r2
	...
  58:	00000048 	andeq	r0, r0, r8, asr #32
  5c:	0000004c 	andeq	r0, r0, ip, asr #32
  60:	007d0002 	rsbseq	r0, sp, r2
  64:	0000004c 	andeq	r0, r0, ip, asr #32
  68:	00000050 	andeq	r0, r0, r0, asr r0
  6c:	047d0002 	ldrbteq	r0, [sp], #-2
  70:	00000050 	andeq	r0, r0, r0, asr r0
  74:	0000009c 	muleq	r0, ip, r0
  78:	107d0002 	rsbsne	r0, sp, r2
	...
  84:	0000009c 	muleq	r0, ip, r0
  88:	000000a0 	andeq	r0, r0, r0, lsr #1
  8c:	007d0002 	rsbseq	r0, sp, r2
  90:	000000a0 	andeq	r0, r0, r0, lsr #1
  94:	000000d4 	ldrdeq	r0, [r0], -r4
  98:	087d0002 	ldmdaeq	sp!, {r1}^
	...
  a8:	00000004 	andeq	r0, r0, r4
  ac:	007d0002 	rsbseq	r0, sp, r2
  b0:	00000004 	andeq	r0, r0, r4
  b4:	00000008 	andeq	r0, r0, r8
  b8:	087d0002 	ldmdaeq	sp!, {r1}^
  bc:	00000008 	andeq	r0, r0, r8
  c0:	000000b4 	strheq	r0, [r0], -r4
  c4:	107d0002 	rsbsne	r0, sp, r2
	...
  d0:	000000b4 	strheq	r0, [r0], -r4
  d4:	000000b8 	strheq	r0, [r0], -r8
  d8:	007d0002 	rsbseq	r0, sp, r2
  dc:	000000b8 	strheq	r0, [r0], -r8
  e0:	000000bc 	strheq	r0, [r0], -ip
  e4:	047d0002 	ldrbteq	r0, [sp], #-2
  e8:	000000bc 	strheq	r0, [r0], -ip
  ec:	000000fc 	strdeq	r0, [r0], -ip
  f0:	107d0002 	rsbsne	r0, sp, r2
	...
  fc:	000000fc 	strdeq	r0, [r0], -ip
 100:	00000100 	andeq	r0, r0, r0, lsl #2
 104:	007d0002 	rsbseq	r0, sp, r2
 108:	00000100 	andeq	r0, r0, r0, lsl #2
 10c:	00000138 	andeq	r0, r0, r8, lsr r1
 110:	087d0002 	ldmdaeq	sp!, {r1}^
	...
 120:	00000004 	andeq	r0, r0, r4
 124:	007d0002 	rsbseq	r0, sp, r2
 128:	00000004 	andeq	r0, r0, r4
 12c:	00000008 	andeq	r0, r0, r8
 130:	047d0002 	ldrbteq	r0, [sp], #-2
 134:	00000008 	andeq	r0, r0, r8
 138:	0000004c 	andeq	r0, r0, ip, asr #32
 13c:	107d0002 	rsbsne	r0, sp, r2
	...
 148:	0000004c 	andeq	r0, r0, ip, asr #32
 14c:	00000050 	andeq	r0, r0, r0, asr r0
 150:	007d0002 	rsbseq	r0, sp, r2
 154:	00000050 	andeq	r0, r0, r0, asr r0
 158:	00000064 	andeq	r0, r0, r4, rrx
 15c:	087d0002 	ldmdaeq	sp!, {r1}^
	...
 168:	00000064 	andeq	r0, r0, r4, rrx
 16c:	00000068 	andeq	r0, r0, r8, rrx
 170:	007d0002 	rsbseq	r0, sp, r2
 174:	00000068 	andeq	r0, r0, r8, rrx
 178:	0000007c 	andeq	r0, r0, ip, ror r0
 17c:	087d0002 	ldmdaeq	sp!, {r1}^
	...
 188:	0000007c 	andeq	r0, r0, ip, ror r0
 18c:	00000080 	andeq	r0, r0, r0, lsl #1
 190:	007d0002 	rsbseq	r0, sp, r2
 194:	00000080 	andeq	r0, r0, r0, lsl #1
 198:	00000084 	andeq	r0, r0, r4, lsl #1
 19c:	047d0002 	ldrbteq	r0, [sp], #-2
 1a0:	00000084 	andeq	r0, r0, r4, lsl #1
 1a4:	0000013c 	andeq	r0, r0, ip, lsr r1
 1a8:	107d0002 	rsbsne	r0, sp, r2
	...
 1b8:	00000004 	andeq	r0, r0, r4
 1bc:	007d0002 	rsbseq	r0, sp, r2
 1c0:	00000004 	andeq	r0, r0, r4
 1c4:	00000008 	andeq	r0, r0, r8
 1c8:	047d0002 	ldrbteq	r0, [sp], #-2
 1cc:	00000008 	andeq	r0, r0, r8
 1d0:	00000098 	muleq	r0, r8, r0
 1d4:	187d0002 	ldmdane	sp!, {r1}^
	...
 1e0:	00000098 	muleq	r0, r8, r0
 1e4:	0000009c 	muleq	r0, ip, r0
 1e8:	007d0002 	rsbseq	r0, sp, r2
 1ec:	0000009c 	muleq	r0, ip, r0
 1f0:	000000a0 	andeq	r0, r0, r0, lsr #1
 1f4:	047d0002 	ldrbteq	r0, [sp], #-2
 1f8:	000000a0 	andeq	r0, r0, r0, lsr #1
 1fc:	0000016c 	andeq	r0, r0, ip, ror #2
 200:	207d0002 	rsbscs	r0, sp, r2
	...
 20c:	0000016c 	andeq	r0, r0, ip, ror #2
 210:	00000170 	andeq	r0, r0, r0, ror r1
 214:	007d0002 	rsbseq	r0, sp, r2
 218:	00000170 	andeq	r0, r0, r0, ror r1
 21c:	00000174 	andeq	r0, r0, r4, ror r1
 220:	047d0002 	ldrbteq	r0, [sp], #-2
 224:	00000174 	andeq	r0, r0, r4, ror r1
 228:	00000258 	andeq	r0, r0, r8, asr r2
 22c:	187d0002 	ldmdane	sp!, {r1}^
	...
 238:	00000258 	andeq	r0, r0, r8, asr r2
 23c:	0000025c 	andeq	r0, r0, ip, asr r2
 240:	007d0002 	rsbseq	r0, sp, r2
 244:	0000025c 	andeq	r0, r0, ip, asr r2
 248:	00000290 	muleq	r0, r0, r2
 24c:	087d0002 	ldmdaeq	sp!, {r1}^
	...
 258:	00000290 	muleq	r0, r0, r2
 25c:	00000294 	muleq	r0, r4, r2
 260:	007d0002 	rsbseq	r0, sp, r2
 264:	00000294 	muleq	r0, r4, r2
 268:	0000037c 	andeq	r0, r0, ip, ror r3
 26c:	087d0002 	ldmdaeq	sp!, {r1}^
	...

Disassembly of section .debug_str:

00000000 <.debug_str>:
   0:	676e6f6c 	strbvs	r6, [lr, -ip, ror #30]!
   4:	6e6f6c20 	cdpvs	12, 6, cr6, cr15, cr0, {1}
   8:	6e692067 	cdpvs	0, 6, cr2, cr9, cr7, {3}
   c:	6d6b0074 	stclvs	0, cr0, [fp, #-464]!	; 0xfffffe30
  10:	006e6961 	rsbeq	r6, lr, r1, ror #18
  14:	42747063 	rsbsmi	r7, r4, #99	; 0x63
  18:	736e7500 	cmnvc	lr, #0
  1c:	656e6769 	strbvs	r6, [lr, #-1897]!	; 0x769
  20:	68632064 	stmdavs	r3!, {r2, r5, r6, sp}^
  24:	47007261 	strmi	r7, [r0, -r1, ror #4]
  28:	4320554e 	teqmi	r0, #327155712	; 0x13800000
  2c:	372e3420 	strcc	r3, [lr, -r0, lsr #8]!
  30:	6300312e 	movwvs	r3, #302	; 0x12e
  34:	00417470 	subeq	r7, r1, r0, ror r4
  38:	676e6f6c 	strbvs	r6, [lr, -ip, ror #30]!
  3c:	6e6f6c20 	cdpvs	12, 6, cr6, cr15, cr0, {1}
  40:	6e752067 	cdpvs	0, 7, cr2, cr5, cr7, {3}
  44:	6e676973 	mcrvs	9, 3, r6, cr7, cr3, {3}
  48:	69206465 	stmdbvs	r0!, {r0, r2, r5, r6, sl, sp, lr}
  4c:	6300746e 	movwvs	r7, #1134	; 0x46e
  50:	00437470 	subeq	r7, r3, r0, ror r4
  54:	636e7566 	cmnvs	lr, #427819008	; 0x19800000
  58:	75660041 	strbvc	r0, [r6, #-65]!	; 0x41
  5c:	0042636e 	subeq	r6, r2, lr, ror #6
  60:	636e7566 	cmnvs	lr, #427819008	; 0x19800000
  64:	74630043 	strbtvc	r0, [r3], #-67	; 0x43
  68:	00735f78 	rsbseq	r5, r3, r8, ror pc
  6c:	5f787463 	svcpl	0x00787463
  70:	74697773 	strbtvc	r7, [r9], #-1907	; 0x773
  74:	73006863 	movwvc	r6, #2147	; 0x863
  78:	74726174 	ldrbtvc	r6, [r2], #-372	; 0x174
  7c:	6863735f 	stmdavs	r3!, {r0, r1, r2, r3, r4, r6, r8, r9, ip, sp, lr}^
  80:	73006465 	movwvc	r6, #1125	; 0x465
  84:	74726f68 	ldrbtvc	r6, [r2], #-3944	; 0xf68
  88:	736e7520 	cmnvc	lr, #134217728	; 0x8000000
  8c:	656e6769 	strbvs	r6, [lr, #-1897]!	; 0x769
  90:	6e692064 	cdpvs	0, 6, cr2, cr9, cr4, {3}
  94:	656b0074 	strbvs	r0, [fp, #-116]!	; 0x74
  98:	6c656e72 	stclvs	14, cr6, [r5], #-456	; 0xfffffe38
  9c:	7300632e 	movwvc	r6, #814	; 0x32e
  a0:	74726f68 	ldrbtvc	r6, [r2], #-3944	; 0xf68
  a4:	746e6920 	strbtvc	r6, [lr], #-2336	; 0x920
  a8:	72756300 	rsbsvc	r6, r5, #0
  ac:	746e6572 	strbtvc	r6, [lr], #-1394	; 0x572
  b0:	7874635f 	ldmdavc	r4!, {r0, r1, r2, r3, r4, r6, r8, r9, sp, lr}^
  b4:	6f682f00 	svcvs	0x00682f00
  b8:	6d2f656d 	cfstr32vs	mvfx6, [pc, #-436]!	; ffffff0c <__bss_end+0xffff76a8>
  bc:	6174696b 	cmnvs	r4, fp, ror #18
  c0:	542f656e 	strtpl	r6, [pc], #-1390	; c8 <_start-0x7f38>
  c4:	c36ca9c3 	cmngt	ip, #3194880	; 0x30c000
  c8:	616863a9 	cmnvs	r8, r9, lsr #7
  cc:	6d656772 	stclvs	7, cr6, [r5, #-456]!	; 0xfffffe38
  d0:	73746e65 	cmnvc	r4, #1616	; 0x650
  d4:	7361722f 	cmnvc	r1, #-268435454	; 0xf0000002
  d8:	72726562 	rsbsvc	r6, r2, #411041792	; 0x18800000
  dc:	2f695079 	svccs	0x00695079
  e0:	6f64724f 	svcvs	0x0064724f
  e4:	6e616e6e 	cdpvs	14, 6, cr6, cr1, cr14, {3}
  e8:	72756563 	rsbsvc	r6, r5, #415236096	; 0x18c00000
  ec:	65727020 	ldrbvs	r7, [r2, #-32]!
  f0:	74706d65 	ldrbtvc	r6, [r0], #-3429	; 0xd65
  f4:	73006669 	movwvc	r6, #1641	; 0x669
  f8:	74657a69 	strbtvc	r7, [r5], #-2665	; 0xa69
  fc:	00657079 	rsbeq	r7, r5, r9, ror r0
 100:	41796870 	cmnmi	r9, r0, ror r8
 104:	636f6c6c 	cmnvs	pc, #27648	; 0x6c00
 108:	7000632e 	andvc	r6, r0, lr, lsr #6
 10c:	00766572 	rsbseq	r6, r6, r2, ror r5
 110:	65657266 	strbvs	r7, [r5, #-614]!	; 0x266
 114:	7473696c 	ldrbtvc	r6, [r3], #-2412	; 0x96c
 118:	79687000 	stmdbvc	r8!, {ip, sp, lr}^
 11c:	6f6c6c41 	svcvs	0x006c6c41
 120:	72665f63 	rsbvc	r5, r6, #396	; 0x18c
 124:	68006565 	stmdavs	r0, {r0, r2, r5, r6, r8, sl, sp, lr}
 128:	5f706165 	svcpl	0x00706165
 12c:	72617473 	rsbvc	r7, r1, #1929379840	; 0x73000000
 130:	656e0074 	strbvs	r0, [lr, #-116]!	; 0x74
 134:	70007478 	andvc	r7, r0, r8, ror r4
 138:	6c417968 	mcrrvs	9, 6, r7, r1, cr8
 13c:	5f636f6c 	svcpl	0x00636f6c
 140:	6f6c6c61 	svcvs	0x006c6c61
 144:	68700063 	ldmdavs	r0!, {r0, r1, r5, r6}^
 148:	6c6c4179 	stfvse	f4, [ip], #-484	; 0xfffffe1c
 14c:	695f636f 	ldmdbvs	pc, {r0, r1, r2, r3, r5, r6, r8, r9, sp, lr}^	; <UNPREDICTABLE>
 150:	0074696e 	rsbseq	r6, r4, lr, ror #18
 154:	70616568 	rsbvc	r6, r1, r8, ror #10
 158:	6d696c5f 	stclvs	12, cr6, [r9, #-380]!	; 0xfffffe84
 15c:	68007469 	stmdavs	r0, {r0, r3, r5, r6, sl, ip, sp, lr}
 160:	5f706165 	svcpl	0x00706165
 164:	657a6973 	ldrbvs	r6, [sl, #-2419]!	; 0x973
 168:	2e776800 	cdpcs	8, 7, cr6, cr7, cr0, {0}
 16c:	656c0063 	strbvs	r0, [ip, #-99]!	; 0x63
 170:	6e6f5f64 	cdpvs	15, 6, cr5, cr15, cr4, {3}
 174:	74657300 	strbtvc	r7, [r5], #-768	; 0x300
 178:	6369745f 	cmnvs	r9, #1593835520	; 0x5f000000
 17c:	6e615f6b 	cdpvs	15, 6, cr5, cr1, cr11, {3}
 180:	6e655f64 	cdpvs	15, 6, cr5, cr5, cr4, {3}
 184:	656c6261 	strbvs	r6, [ip, #-609]!	; 0x261
 188:	6d69745f 	cfstrdvs	mvd7, [r9, #-380]!	; 0xfffffe84
 18c:	69007265 	stmdbvs	r0, {r0, r2, r5, r6, r9, ip, sp, lr}
 190:	5f74696e 	svcpl	0x0074696e
 194:	6c007768 	stcvs	7, cr7, [r0], {104}	; 0x68
 198:	6f5f6465 	svcvs	0x005f6465
 19c:	61006666 	tstvs	r0, r6, ror #12
 1a0:	73657264 	cmnvc	r5, #1073741830	; 0x40000006
 1a4:	69700073 	ldmdbvs	r0!, {r0, r1, r4, r5, r6}^
 1a8:	6f625f64 	svcvs	0x00625f64
 1ac:	656c6375 	strbvs	r6, [ip, #-885]!	; 0x375
 1b0:	49415700 	stmdbmi	r1, {r8, r9, sl, ip, lr}^
 1b4:	474e4954 	smlsldmi	r4, lr, r4, r9
 1b8:	68637300 	stmdavs	r3!, {r8, r9, ip, sp, lr}^
 1bc:	632e6465 	teqvs	lr, #1694498816	; 0x65000000
 1c0:	62637000 	rsbvs	r7, r3, #0
 1c4:	6900735f 	stmdbvs	r0, {r0, r1, r2, r3, r4, r6, r8, r9, ip, sp, lr}
 1c8:	72705f64 	rsbsvc	r5, r0, #400	; 0x190
 1cc:	7365636f 	cmnvc	r5, #-1140850687	; 0xbc000001
 1d0:	72610073 	rsbvc	r0, r1, #115	; 0x73
 1d4:	665f7367 	ldrbvs	r7, [pc], -r7, ror #6
 1d8:	6d657400 	cfstrdvs	mvd7, [r5, #-0]
 1dc:	74630070 	strbtvc	r0, [r3], #-112	; 0x70
 1e0:	77735f78 			; <UNDEFINED> instruction: 0x77735f78
 1e4:	68637469 	stmdavs	r3!, {r0, r3, r5, r6, sl, ip, sp, lr}^
 1e8:	6f72665f 	svcvs	0x0072665f
 1ec:	72695f6d 	rsbvc	r5, r9, #436	; 0x1b4
 1f0:	75630071 	strbvc	r0, [r3, #-113]!	; 0x71
 1f4:	6e657272 	mcrvs	2, 3, r7, cr5, cr2, {3}
 1f8:	72705f74 	rsbsvc	r5, r0, #464	; 0x1d0
 1fc:	7365636f 	cmnvc	r5, #-1140850687	; 0xbc000001
 200:	74730073 	ldrbtvc	r0, [r3], #-115	; 0x73
 204:	5f657461 	svcpl	0x00657461
 208:	636f7270 	cmnvs	pc, #7
 20c:	00737365 	rsbseq	r7, r3, r5, ror #6
 210:	63656c65 	cmnvs	r5, #25856	; 0x6500
 214:	75660074 	strbvc	r0, [r6, #-116]!	; 0x74
 218:	745f636e 	ldrbvc	r6, [pc], #-878	; 220 <_start-0x7de0>
 21c:	41455200 	mrsmi	r5, (UNDEF: 101)
 220:	6e005944 	cdpvs	9, 0, cr5, cr0, cr4, {2}
 224:	5f747865 	svcpl	0x00747865
 228:	636f7270 	cmnvs	pc, #7
 22c:	00737365 	rsbseq	r7, r3, r5, ror #6
 230:	706d6f63 	rsbvc	r6, sp, r3, ror #30
 234:	72756574 	rsbsvc	r6, r5, #486539264	; 0x1d000000
 238:	61747300 	cmnvs	r4, r0, lsl #6
 23c:	735f6b63 	cmpvc	pc, #101376	; 0x18c00
 240:	00657a69 	rsbeq	r7, r5, r9, ror #20
 244:	73726966 	cmnvc	r2, #1671168	; 0x198000
 248:	72705f74 	rsbsvc	r5, r0, #464	; 0x1d0
 24c:	7365636f 	cmnvc	r5, #-1140850687	; 0xbc000001
 250:	616c0073 	smcvs	49155	; 0xc003
 254:	705f7473 	subsvc	r7, pc, r3, ror r4	; <UNPREDICTABLE>
 258:	65636f72 	strbvs	r6, [r3, #-3954]!	; 0xf72
 25c:	61007373 	tstvs	r0, r3, ror r3
 260:	00736772 	rsbseq	r6, r3, r2, ror r7
 264:	636f7270 	cmnvs	pc, #7
 268:	5f737365 	svcpl	0x00737365
 26c:	74617473 	strbtvc	r7, [r1], #-1139	; 0x473
 270:	00735f65 	rsbseq	r5, r3, r5, ror #30
 274:	74696e69 	strbtvc	r6, [r9], #-3689	; 0xe69
 278:	6263705f 	rsbvs	r7, r3, #95	; 0x5f
 27c:	65726300 	ldrbvs	r6, [r2, #-768]!	; 0x300
 280:	5f657461 	svcpl	0x00657461
 284:	636f7270 	cmnvs	pc, #7
 288:	00737365 	rsbseq	r7, r3, r5, ror #6
 28c:	4e4e5552 	mcrmi	5, 2, r5, cr14, cr2, {2}
 290:	00474e49 	subeq	r4, r7, r9, asr #28
 294:	4d524554 	cfldr64mi	mvdx4, [r2, #-336]	; 0xfffffeb0
 298:	54414e49 	strbpl	r4, [r1], #-3657	; 0xe49
 29c:	66004445 	strvs	r4, [r0], -r5, asr #8
 2a0:	74636e75 	strbtvc	r6, [r3], #-3701	; 0xe75
 2a4:	006e6f69 	rsbeq	r6, lr, r9, ror #30

Disassembly of section .debug_frame:

00000000 <.debug_frame>:
   0:	0000000c 	andeq	r0, r0, ip
   4:	ffffffff 			; <UNDEFINED> instruction: 0xffffffff
   8:	7c020001 	stcvc	0, cr0, [r2], {1}
   c:	000d0c0e 	andeq	r0, sp, lr, lsl #24
  10:	00000014 	andeq	r0, r0, r4, lsl r0
  14:	00000000 	andeq	r0, r0, r0
  18:	000080d0 	ldrdeq	r8, [r0], -r0
  1c:	00000024 	andeq	r0, r0, r4, lsr #32
  20:	8e040e42 	cdphi	14, 0, cr0, cr4, cr2, {2}
  24:	100e4201 	andne	r4, lr, r1, lsl #4
  28:	00000014 	andeq	r0, r0, r4, lsl r0
  2c:	00000000 	andeq	r0, r0, r0
  30:	000080f4 	strdeq	r8, [r0], -r4
  34:	00000024 	andeq	r0, r0, r4, lsr #32
  38:	8e040e42 	cdphi	14, 0, cr0, cr4, cr2, {2}
  3c:	100e4201 	andne	r4, lr, r1, lsl #4
  40:	00000014 	andeq	r0, r0, r4, lsl r0
  44:	00000000 	andeq	r0, r0, r0
  48:	00008118 	andeq	r8, r0, r8, lsl r1
  4c:	00000054 	andeq	r0, r0, r4, asr r0
  50:	8e040e42 	cdphi	14, 0, cr0, cr4, cr2, {2}
  54:	100e4201 	andne	r4, lr, r1, lsl #4
  58:	00000014 	andeq	r0, r0, r4, lsl r0
  5c:	00000000 	andeq	r0, r0, r0
  60:	0000816c 	andeq	r8, r0, ip, ror #2
  64:	00000038 	andeq	r0, r0, r8, lsr r0
  68:	83080e42 	movwhi	r0, #36418	; 0x8e42
  6c:	00018e02 	andeq	r8, r1, r2, lsl #28
  70:	0000000c 	andeq	r0, r0, ip
  74:	ffffffff 			; <UNDEFINED> instruction: 0xffffffff
  78:	7c020001 	stcvc	0, cr0, [r2], {1}
  7c:	000d0c0e 	andeq	r0, sp, lr, lsl #24
  80:	00000018 	andeq	r0, r0, r8, lsl r0
  84:	00000070 	andeq	r0, r0, r0, ror r0
  88:	000081a4 	andeq	r8, r0, r4, lsr #3
  8c:	000000b4 	strheq	r0, [r0], -r4
  90:	84080e42 	strhi	r0, [r8], #-3650	; 0xe42
  94:	42018502 	andmi	r8, r1, #8388608	; 0x800000
  98:	0000100e 	andeq	r1, r0, lr
  9c:	00000014 	andeq	r0, r0, r4, lsl r0
  a0:	00000070 	andeq	r0, r0, r0, ror r0
  a4:	00008258 	andeq	r8, r0, r8, asr r2
  a8:	00000048 	andeq	r0, r0, r8, asr #32
  ac:	84040e42 	strhi	r0, [r4], #-3650	; 0xe42
  b0:	100e4201 	andne	r4, lr, r1, lsl #4
  b4:	00000010 	andeq	r0, r0, r0, lsl r0
  b8:	00000070 	andeq	r0, r0, r0, ror r0
  bc:	000082a0 	andeq	r8, r0, r0, lsr #5
  c0:	0000003c 	andeq	r0, r0, ip, lsr r0
  c4:	00080e42 	andeq	r0, r8, r2, asr #28
  c8:	0000000c 	andeq	r0, r0, ip
  cc:	ffffffff 			; <UNDEFINED> instruction: 0xffffffff
  d0:	7c020001 	stcvc	0, cr0, [r2], {1}
  d4:	000d0c0e 	andeq	r0, sp, lr, lsl #24
  d8:	00000014 	andeq	r0, r0, r4, lsl r0
  dc:	000000c8 	andeq	r0, r0, r8, asr #1
  e0:	000082dc 	ldrdeq	r8, [r0], -ip
  e4:	0000004c 	andeq	r0, r0, ip, asr #32
  e8:	8e040e42 	cdphi	14, 0, cr0, cr4, cr2, {2}
  ec:	100e4201 	andne	r4, lr, r1, lsl #4
  f0:	00000014 	andeq	r0, r0, r4, lsl r0
  f4:	000000c8 	andeq	r0, r0, r8, asr #1
  f8:	00008328 	andeq	r8, r0, r8, lsr #6
  fc:	00000018 	andeq	r0, r0, r8, lsl r0
 100:	83080e42 	movwhi	r0, #36418	; 0x8e42
 104:	00018e02 	andeq	r8, r1, r2, lsl #28
 108:	00000014 	andeq	r0, r0, r4, lsl r0
 10c:	000000c8 	andeq	r0, r0, r8, asr #1
 110:	00008340 	andeq	r8, r0, r0, asr #6
 114:	00000018 	andeq	r0, r0, r8, lsl r0
 118:	83080e42 	movwhi	r0, #36418	; 0x8e42
 11c:	00018e02 	andeq	r8, r1, r2, lsl #28
 120:	00000014 	andeq	r0, r0, r4, lsl r0
 124:	000000c8 	andeq	r0, r0, r8, asr #1
 128:	00008358 	andeq	r8, r0, r8, asr r3
 12c:	000000c0 	andeq	r0, r0, r0, asr #1
 130:	8e040e42 	cdphi	14, 0, cr0, cr4, cr2, {2}
 134:	100e4201 	andne	r4, lr, r1, lsl #4
 138:	0000000c 	andeq	r0, r0, ip
 13c:	ffffffff 			; <UNDEFINED> instruction: 0xffffffff
 140:	7c020001 	stcvc	0, cr0, [r2], {1}
 144:	000d0c0e 	andeq	r0, sp, lr, lsl #24
 148:	00000014 	andeq	r0, r0, r4, lsl r0
 14c:	00000138 	andeq	r0, r0, r8, lsr r1
 150:	00008418 	andeq	r8, r0, r8, lsl r4
 154:	00000098 	muleq	r0, r8, r0
 158:	8e040e42 	cdphi	14, 0, cr0, cr4, cr2, {2}
 15c:	180e4201 	stmdane	lr, {r0, r9, lr}
 160:	00000014 	andeq	r0, r0, r4, lsl r0
 164:	00000138 	andeq	r0, r0, r8, lsr r1
 168:	000084b0 			; <UNDEFINED> instruction: 0x000084b0
 16c:	000000d4 	ldrdeq	r0, [r0], -r4
 170:	8e040e42 	cdphi	14, 0, cr0, cr4, cr2, {2}
 174:	200e4201 	andcs	r4, lr, r1, lsl #4
 178:	00000014 	andeq	r0, r0, r4, lsl r0
 17c:	00000138 	andeq	r0, r0, r8, lsr r1
 180:	00008584 	andeq	r8, r0, r4, lsl #11
 184:	000000ec 	andeq	r0, r0, ip, ror #1
 188:	8e040e42 	cdphi	14, 0, cr0, cr4, cr2, {2}
 18c:	180e4201 	stmdane	lr, {r0, r9, lr}
 190:	00000014 	andeq	r0, r0, r4, lsl r0
 194:	00000138 	andeq	r0, r0, r8, lsr r1
 198:	00008670 	andeq	r8, r0, r0, ror r6
 19c:	00000038 	andeq	r0, r0, r8, lsr r0
 1a0:	83080e42 	movwhi	r0, #36418	; 0x8e42
 1a4:	00018e02 	andeq	r8, r1, r2, lsl #28
 1a8:	00000014 	andeq	r0, r0, r4, lsl r0
 1ac:	00000138 	andeq	r0, r0, r8, lsr r1
 1b0:	000086a8 	andeq	r8, r0, r8, lsr #13
 1b4:	000000ec 	andeq	r0, r0, ip, ror #1
 1b8:	83080e42 	movwhi	r0, #36418	; 0x8e42
 1bc:	00018e02 	andeq	r8, r1, r2, lsl #28
 1c0:	0000000c 	andeq	r0, r0, ip
 1c4:	00000138 	andeq	r0, r0, r8, lsr r1
 1c8:	00008794 	muleq	r0, r4, r7
 1cc:	000000b0 	strheq	r0, [r0], -r0	; <UNPREDICTABLE>
